<?xml version="1.0"?>
<?xml-stylesheet type="text/xsl" href="pdml2html.xsl"?>
<!-- You can find pdml2html.xsl in D:\Program Files\Wireshark or at http://anonsvn.wireshark.org/trunk/wireshark/pdml2html.xsl. -->
<pdml version="0" creator="wireshark/1.12.1" time="Sat Jul 25 19:37:48 2015" capture_file="E:\\DATAGRAPH\\PCAP\\ADRD\\com.ophone.MiniPlayerAND09b143b430e836c513279c0209b7229a4d29a18c.pcap">
<packet>
  <proto name="geninfo" pos="0" showname="General information" size="54">
    <field name="num" pos="0" show="1" showname="Number" value="1" size="54"/>
    <field name="len" pos="0" show="54" showname="Frame Length" value="36" size="54"/>
    <field name="caplen" pos="0" show="54" showname="Captured Length" value="36" size="54"/>
    <field name="timestamp" pos="0" show="Jul 25, 2015 16:53:07.322160000 中国标准时间" showname="Captured Time" value="1437814387.322160000" size="54"/>
  </proto>
  <proto name="frame" showname="Frame 1: 54 bytes on wire (432 bits), 54 bytes captured (432 bits)" size="54" pos="0">
    <field name="frame.encap_type" showname="Encapsulation type: Ethernet (1)" size="0" pos="0" show="1"/>
    <field name="frame.time" showname="Arrival Time: Jul 25, 2015 16:53:07.322160000 \xe4\xb8\xad\xe5\x9b\xbd\xe6\xa0\x87\xe5\x87\x86\xe6\x97\xb6\xe9\x97\xb4" size="0" pos="0" show="Jul 25, 2015 16:53:07.322160000 \xe4\xb8\xad\xe5\x9b\xbd\xe6\xa0\x87\xe5\x87\x86\xe6\x97\xb6\xe9\x97\xb4"/>
    <field name="frame.offset_shift" showname="Time shift for this packet: 0.000000000 seconds" size="0" pos="0" show="0.000000000"/>
    <field name="frame.time_epoch" showname="Epoch Time: 1437814387.322160000 seconds" size="0" pos="0" show="1437814387.322160000"/>
    <field name="frame.time_delta" showname="Time delta from previous captured frame: 0.000000000 seconds" size="0" pos="0" show="0.000000000"/>
    <field name="frame.time_delta_displayed" showname="Time delta from previous displayed frame: 0.000000000 seconds" size="0" pos="0" show="0.000000000"/>
    <field name="frame.time_relative" showname="Time since reference or first frame: 0.000000000 seconds" size="0" pos="0" show="0.000000000"/>
    <field name="frame.number" showname="Frame Number: 1" size="0" pos="0" show="1"/>
    <field name="frame.len" showname="Frame Length: 54 bytes (432 bits)" size="0" pos="0" show="54"/>
    <field name="frame.cap_len" showname="Capture Length: 54 bytes (432 bits)" size="0" pos="0" show="54"/>
    <field name="frame.marked" showname="Frame is marked: False" size="0" pos="0" show="0"/>
    <field name="frame.ignored" showname="Frame is ignored: False" size="0" pos="0" show="0"/>
    <field name="frame.protocols" showname="Protocols in frame: eth:ethertype:ip:tcp" size="0" pos="0" show="eth:ethertype:ip:tcp"/>
  </proto>
  <proto name="eth" showname="Ethernet II, Src: RealtekU_12:35:02 (52:54:00:12:35:02), Dst: CadmusCo_4f:2a:73 (08:00:27:4f:2a:73)" size="14" pos="0">
    <field name="eth.dst" showname="Destination: CadmusCo_4f:2a:73 (08:00:27:4f:2a:73)" size="6" pos="0" show="08:00:27:4f:2a:73" value="0800274f2a73">
      <field name="eth.dst_resolved" showname="Destination (resolved): CadmusCo_4f:2a:73" hide="yes" size="6" pos="0" show="CadmusCo_4f:2a:73" value="0800274f2a73"/>
      <field name="eth.addr" showname="Address: CadmusCo_4f:2a:73 (08:00:27:4f:2a:73)" size="6" pos="0" show="08:00:27:4f:2a:73" value="0800274f2a73"/>
      <field name="eth.addr_resolved" showname="Address (resolved): CadmusCo_4f:2a:73" hide="yes" size="6" pos="0" show="CadmusCo_4f:2a:73" value="0800274f2a73"/>
      <field name="eth.lg" showname=".... ..0. .... .... .... .... = LG bit: Globally unique address (factory default)" size="3" pos="0" show="0" value="0" unmaskedvalue="080027"/>
      <field name="eth.ig" showname=".... ...0 .... .... .... .... = IG bit: Individual address (unicast)" size="3" pos="0" show="0" value="0" unmaskedvalue="080027"/>
    </field>
    <field name="eth.src" showname="Source: RealtekU_12:35:02 (52:54:00:12:35:02)" size="6" pos="6" show="52:54:00:12:35:02" value="525400123502">
      <field name="eth.src_resolved" showname="Source (resolved): RealtekU_12:35:02" hide="yes" size="6" pos="6" show="RealtekU_12:35:02" value="525400123502"/>
      <field name="eth.addr" showname="Address: RealtekU_12:35:02 (52:54:00:12:35:02)" size="6" pos="6" show="52:54:00:12:35:02" value="525400123502"/>
      <field name="eth.addr_resolved" showname="Address (resolved): RealtekU_12:35:02" hide="yes" size="6" pos="6" show="RealtekU_12:35:02" value="525400123502"/>
      <field name="eth.lg" showname=".... ..1. .... .... .... .... = LG bit: Locally administered address (this is NOT the factory default)" size="3" pos="6" show="1" value="1" unmaskedvalue="525400"/>
      <field name="eth.ig" showname=".... ...0 .... .... .... .... = IG bit: Individual address (unicast)" size="3" pos="6" show="0" value="0" unmaskedvalue="525400"/>
    </field>
    <field name="eth.type" showname="Type: IP (0x0800)" size="2" pos="12" show="2048" value="0800"/>
  </proto>
  <proto name="ip" showname="Internet Protocol Version 4, Src: 219.145.184.56 (219.145.184.56), Dst: 10.0.3.15 (10.0.3.15)" size="20" pos="14">
    <field name="ip.version" showname="Version: 4" size="1" pos="14" show="4" value="45"/>
    <field name="ip.hdr_len" showname="Header Length: 20 bytes" size="1" pos="14" show="20" value="45"/>
    <field name="ip.dsfield" showname="Differentiated Services Field: 0x00 (DSCP 0x00: Default; ECN: 0x00: Not-ECT (Not ECN-Capable Transport))" size="1" pos="15" show="0" value="00">
      <field name="ip.dsfield.dscp" showname="0000 00.. = Differentiated Services Codepoint: Default (0x00)" size="1" pos="15" show="0" value="0" unmaskedvalue="00"/>
      <field name="ip.dsfield.ecn" showname=".... ..00 = Explicit Congestion Notification: Not-ECT (Not ECN-Capable Transport) (0x00)" size="1" pos="15" show="0" value="0" unmaskedvalue="00"/>
    </field>
    <field name="ip.len" showname="Total Length: 40" size="2" pos="16" show="40" value="0028"/>
    <field name="ip.id" showname="Identification: 0x0047 (71)" size="2" pos="18" show="71" value="0047"/>
    <field name="ip.flags" showname="Flags: 0x00" size="1" pos="20" show="0" value="00">
      <field name="ip.flags.rb" showname="0... .... = Reserved bit: Not set" size="1" pos="20" show="0" value="00"/>
      <field name="ip.flags.df" showname=".0.. .... = Don&apos;t fragment: Not set" size="1" pos="20" show="0" value="00"/>
      <field name="ip.flags.mf" showname="..0. .... = More fragments: Not set" size="1" pos="20" show="0" value="00"/>
    </field>
    <field name="ip.frag_offset" showname="Fragment offset: 0" size="2" pos="20" show="0" value="0000"/>
    <field name="ip.ttl" showname="Time to live: 64" size="1" pos="22" show="64" value="40"/>
    <field name="ip.proto" showname="Protocol: TCP (6)" size="1" pos="23" show="6" value="06"/>
    <field name="ip.checksum" showname="Header checksum: 0xd9b0 [validation disabled]" size="2" pos="24" show="55728" value="d9b0">
      <field name="ip.checksum_good" showname="Good: False" size="2" pos="24" show="0" value="d9b0"/>
      <field name="ip.checksum_bad" showname="Bad: False" size="2" pos="24" show="0" value="d9b0"/>
    </field>
    <field name="ip.src" showname="Source: 219.145.184.56 (219.145.184.56)" size="4" pos="26" show="219.145.184.56" value="db91b838"/>
    <field name="ip.addr" showname="Source or Destination Address: 219.145.184.56 (219.145.184.56)" hide="yes" size="4" pos="26" show="219.145.184.56" value="db91b838"/>
    <field name="ip.src_host" showname="Source Host: 219.145.184.56" hide="yes" size="4" pos="26" show="219.145.184.56" value="db91b838"/>
    <field name="ip.host" showname="Source or Destination Host: 219.145.184.56" hide="yes" size="4" pos="26" show="219.145.184.56" value="db91b838"/>
    <field name="ip.dst" showname="Destination: 10.0.3.15 (10.0.3.15)" size="4" pos="30" show="10.0.3.15" value="0a00030f"/>
    <field name="ip.addr" showname="Source or Destination Address: 10.0.3.15 (10.0.3.15)" hide="yes" size="4" pos="30" show="10.0.3.15" value="0a00030f"/>
    <field name="ip.dst_host" showname="Destination Host: 10.0.3.15" hide="yes" size="4" pos="30" show="10.0.3.15" value="0a00030f"/>
    <field name="ip.host" showname="Source or Destination Host: 10.0.3.15" hide="yes" size="4" pos="30" show="10.0.3.15" value="0a00030f"/>
    <field name="" show="Source GeoIP: Unknown" size="4" pos="26" value="db91b838"/>
    <field name="" show="Destination GeoIP: Unknown" size="4" pos="30" value="0a00030f"/>
  </proto>
  <proto name="tcp" showname="Transmission Control Protocol, Src Port: 80 (80), Dst Port: 60198 (60198), Seq: 1, Ack: 1, Len: 0" size="20" pos="34">
    <field name="tcp.srcport" showname="Source Port: 80 (80)" size="2" pos="34" show="80" value="0050"/>
    <field name="tcp.dstport" showname="Destination Port: 60198 (60198)" size="2" pos="36" show="60198" value="eb26"/>
    <field name="tcp.port" showname="Source or Destination Port: 80" hide="yes" size="2" pos="34" show="80" value="0050"/>
    <field name="tcp.port" showname="Source or Destination Port: 60198" hide="yes" size="2" pos="36" show="60198" value="eb26"/>
    <field name="tcp.stream" showname="Stream index: 0" size="0" pos="34" show="0"/>
    <field name="tcp.len" showname="TCP Segment Len: 0" size="1" pos="46" show="0" value="50"/>
    <field name="tcp.seq" showname="Sequence number: 1    (relative sequence number)" size="4" pos="38" show="1" value="00d4e71d"/>
    <field name="tcp.ack" showname="Acknowledgment number: 1    (relative ack number)" size="4" pos="42" show="1" value="f7594de4"/>
    <field name="tcp.hdr_len" showname="Header Length: 20 bytes" size="1" pos="46" show="20" value="50"/>
    <field name="tcp.flags" showname=".... 0000 0001 0001 = Flags: 0x011 (FIN, ACK)" size="2" pos="46" show="17" value="11" unmaskedvalue="5011">
      <field name="tcp.flags.res" showname="000. .... .... = Reserved: Not set" size="1" pos="46" show="0" value="0" unmaskedvalue="50"/>
      <field name="tcp.flags.ns" showname="...0 .... .... = Nonce: Not set" size="1" pos="46" show="0" value="0" unmaskedvalue="50"/>
      <field name="tcp.flags.cwr" showname=".... 0... .... = Congestion Window Reduced (CWR): Not set" size="1" pos="47" show="0" value="0" unmaskedvalue="11"/>
      <field name="tcp.flags.ecn" showname=".... .0.. .... = ECN-Echo: Not set" size="1" pos="47" show="0" value="0" unmaskedvalue="11"/>
      <field name="tcp.flags.urg" showname=".... ..0. .... = Urgent: Not set" size="1" pos="47" show="0" value="0" unmaskedvalue="11"/>
      <field name="tcp.flags.ack" showname=".... ...1 .... = Acknowledgment: Set" size="1" pos="47" show="1" value="1" unmaskedvalue="11"/>
      <field name="tcp.flags.push" showname=".... .... 0... = Push: Not set" size="1" pos="47" show="0" value="0" unmaskedvalue="11"/>
      <field name="tcp.flags.reset" showname=".... .... .0.. = Reset: Not set" size="1" pos="47" show="0" value="0" unmaskedvalue="11"/>
      <field name="tcp.flags.syn" showname=".... .... ..0. = Syn: Not set" size="1" pos="47" show="0" value="0" unmaskedvalue="11"/>
      <field name="tcp.flags.fin" showname=".... .... ...1 = Fin: Set" size="1" pos="47" show="1" value="1" unmaskedvalue="11">
        <field name="_ws.expert" showname="Expert Info (Chat/Sequence): Connection finish (FIN)" size="0" pos="47">
          <field name="tcp.connection.fin" showname="Connection finish (FIN)" size="0" pos="0" show="" value=""/>
          <field name="_ws.expert.message" showname="Message: Connection finish (FIN)" hide="yes" size="0" pos="0" show="Connection finish (FIN)"/>
          <field name="_ws.expert.severity" showname="Severity level: Chat" size="0" pos="0" show="2097152"/>
          <field name="_ws.expert.group" showname="Group: Sequence" size="0" pos="0" show="33554432"/>
        </field>
      </field>
    </field>
    <field name="tcp.window_size_value" showname="Window size value: 65535" size="2" pos="48" show="65535" value="ffff"/>
    <field name="tcp.window_size" showname="Calculated window size: 65535" size="2" pos="48" show="65535" value="ffff"/>
    <field name="tcp.window_size_scalefactor" showname="Window size scaling factor: -1 (unknown)" size="2" pos="48" show="-1" value="ffff"/>
    <field name="tcp.checksum" showname="Checksum: 0xf653 [validation disabled]" size="2" pos="50" show="63059" value="f653">
      <field name="tcp.checksum_good" showname="Good Checksum: False" size="2" pos="50" show="0" value="f653"/>
      <field name="tcp.checksum_bad" showname="Bad Checksum: False" size="2" pos="50" show="0" value="f653"/>
    </field>
    <field name="tcp.urgent_pointer" showname="Urgent pointer: 0" size="2" pos="52" show="0" value="0000"/>
  </proto>
</packet>


<packet>
  <proto name="geninfo" pos="0" showname="General information" size="54">
    <field name="num" pos="0" show="2" showname="Number" value="2" size="54"/>
    <field name="len" pos="0" show="54" showname="Frame Length" value="36" size="54"/>
    <field name="caplen" pos="0" show="54" showname="Captured Length" value="36" size="54"/>
    <field name="timestamp" pos="0" show="Jul 25, 2015 16:53:07.322166000 中国标准时间" showname="Captured Time" value="1437814387.322166000" size="54"/>
  </proto>
  <proto name="frame" showname="Frame 2: 54 bytes on wire (432 bits), 54 bytes captured (432 bits)" size="54" pos="0">
    <field name="frame.encap_type" showname="Encapsulation type: Ethernet (1)" size="0" pos="0" show="1"/>
    <field name="frame.time" showname="Arrival Time: Jul 25, 2015 16:53:07.322166000 \xe4\xb8\xad\xe5\x9b\xbd\xe6\xa0\x87\xe5\x87\x86\xe6\x97\xb6\xe9\x97\xb4" size="0" pos="0" show="Jul 25, 2015 16:53:07.322166000 \xe4\xb8\xad\xe5\x9b\xbd\xe6\xa0\x87\xe5\x87\x86\xe6\x97\xb6\xe9\x97\xb4"/>
    <field name="frame.offset_shift" showname="Time shift for this packet: 0.000000000 seconds" size="0" pos="0" show="0.000000000"/>
    <field name="frame.time_epoch" showname="Epoch Time: 1437814387.322166000 seconds" size="0" pos="0" show="1437814387.322166000"/>
    <field name="frame.time_delta" showname="Time delta from previous captured frame: 0.000006000 seconds" size="0" pos="0" show="0.000006000"/>
    <field name="frame.time_delta_displayed" showname="Time delta from previous displayed frame: 0.000006000 seconds" size="0" pos="0" show="0.000006000"/>
    <field name="frame.time_relative" showname="Time since reference or first frame: 0.000006000 seconds" size="0" pos="0" show="0.000006000"/>
    <field name="frame.number" showname="Frame Number: 2" size="0" pos="0" show="2"/>
    <field name="frame.len" showname="Frame Length: 54 bytes (432 bits)" size="0" pos="0" show="54"/>
    <field name="frame.cap_len" showname="Capture Length: 54 bytes (432 bits)" size="0" pos="0" show="54"/>
    <field name="frame.marked" showname="Frame is marked: False" size="0" pos="0" show="0"/>
    <field name="frame.ignored" showname="Frame is ignored: False" size="0" pos="0" show="0"/>
    <field name="frame.protocols" showname="Protocols in frame: eth:ethertype:ip:tcp" size="0" pos="0" show="eth:ethertype:ip:tcp"/>
  </proto>
  <proto name="eth" showname="Ethernet II, Src: RealtekU_12:35:02 (52:54:00:12:35:02), Dst: CadmusCo_4f:2a:73 (08:00:27:4f:2a:73)" size="14" pos="0">
    <field name="eth.dst" showname="Destination: CadmusCo_4f:2a:73 (08:00:27:4f:2a:73)" size="6" pos="0" show="08:00:27:4f:2a:73" value="0800274f2a73">
      <field name="eth.dst_resolved" showname="Destination (resolved): CadmusCo_4f:2a:73" hide="yes" size="6" pos="0" show="CadmusCo_4f:2a:73" value="0800274f2a73"/>
      <field name="eth.addr" showname="Address: CadmusCo_4f:2a:73 (08:00:27:4f:2a:73)" size="6" pos="0" show="08:00:27:4f:2a:73" value="0800274f2a73"/>
      <field name="eth.addr_resolved" showname="Address (resolved): CadmusCo_4f:2a:73" hide="yes" size="6" pos="0" show="CadmusCo_4f:2a:73" value="0800274f2a73"/>
      <field name="eth.lg" showname=".... ..0. .... .... .... .... = LG bit: Globally unique address (factory default)" size="3" pos="0" show="0" value="0" unmaskedvalue="080027"/>
      <field name="eth.ig" showname=".... ...0 .... .... .... .... = IG bit: Individual address (unicast)" size="3" pos="0" show="0" value="0" unmaskedvalue="080027"/>
    </field>
    <field name="eth.src" showname="Source: RealtekU_12:35:02 (52:54:00:12:35:02)" size="6" pos="6" show="52:54:00:12:35:02" value="525400123502">
      <field name="eth.src_resolved" showname="Source (resolved): RealtekU_12:35:02" hide="yes" size="6" pos="6" show="RealtekU_12:35:02" value="525400123502"/>
      <field name="eth.addr" showname="Address: RealtekU_12:35:02 (52:54:00:12:35:02)" size="6" pos="6" show="52:54:00:12:35:02" value="525400123502"/>
      <field name="eth.addr_resolved" showname="Address (resolved): RealtekU_12:35:02" hide="yes" size="6" pos="6" show="RealtekU_12:35:02" value="525400123502"/>
      <field name="eth.lg" showname=".... ..1. .... .... .... .... = LG bit: Locally administered address (this is NOT the factory default)" size="3" pos="6" show="1" value="1" unmaskedvalue="525400"/>
      <field name="eth.ig" showname=".... ...0 .... .... .... .... = IG bit: Individual address (unicast)" size="3" pos="6" show="0" value="0" unmaskedvalue="525400"/>
    </field>
    <field name="eth.type" showname="Type: IP (0x0800)" size="2" pos="12" show="2048" value="0800"/>
  </proto>
  <proto name="ip" showname="Internet Protocol Version 4, Src: 219.145.171.61 (219.145.171.61), Dst: 10.0.3.15 (10.0.3.15)" size="20" pos="14">
    <field name="ip.version" showname="Version: 4" size="1" pos="14" show="4" value="45"/>
    <field name="ip.hdr_len" showname="Header Length: 20 bytes" size="1" pos="14" show="20" value="45"/>
    <field name="ip.dsfield" showname="Differentiated Services Field: 0x00 (DSCP 0x00: Default; ECN: 0x00: Not-ECT (Not ECN-Capable Transport))" size="1" pos="15" show="0" value="00">
      <field name="ip.dsfield.dscp" showname="0000 00.. = Differentiated Services Codepoint: Default (0x00)" size="1" pos="15" show="0" value="0" unmaskedvalue="00"/>
      <field name="ip.dsfield.ecn" showname=".... ..00 = Explicit Congestion Notification: Not-ECT (Not ECN-Capable Transport) (0x00)" size="1" pos="15" show="0" value="0" unmaskedvalue="00"/>
    </field>
    <field name="ip.len" showname="Total Length: 40" size="2" pos="16" show="40" value="0028"/>
    <field name="ip.id" showname="Identification: 0x0048 (72)" size="2" pos="18" show="72" value="0048"/>
    <field name="ip.flags" showname="Flags: 0x00" size="1" pos="20" show="0" value="00">
      <field name="ip.flags.rb" showname="0... .... = Reserved bit: Not set" size="1" pos="20" show="0" value="00"/>
      <field name="ip.flags.df" showname=".0.. .... = Don&apos;t fragment: Not set" size="1" pos="20" show="0" value="00"/>
      <field name="ip.flags.mf" showname="..0. .... = More fragments: Not set" size="1" pos="20" show="0" value="00"/>
    </field>
    <field name="ip.frag_offset" showname="Fragment offset: 0" size="2" pos="20" show="0" value="0000"/>
    <field name="ip.ttl" showname="Time to live: 64" size="1" pos="22" show="64" value="40"/>
    <field name="ip.proto" showname="Protocol: TCP (6)" size="1" pos="23" show="6" value="06"/>
    <field name="ip.checksum" showname="Header checksum: 0xe6aa [validation disabled]" size="2" pos="24" show="59050" value="e6aa">
      <field name="ip.checksum_good" showname="Good: False" size="2" pos="24" show="0" value="e6aa"/>
      <field name="ip.checksum_bad" showname="Bad: False" size="2" pos="24" show="0" value="e6aa"/>
    </field>
    <field name="ip.src" showname="Source: 219.145.171.61 (219.145.171.61)" size="4" pos="26" show="219.145.171.61" value="db91ab3d"/>
    <field name="ip.addr" showname="Source or Destination Address: 219.145.171.61 (219.145.171.61)" hide="yes" size="4" pos="26" show="219.145.171.61" value="db91ab3d"/>
    <field name="ip.src_host" showname="Source Host: 219.145.171.61" hide="yes" size="4" pos="26" show="219.145.171.61" value="db91ab3d"/>
    <field name="ip.host" showname="Source or Destination Host: 219.145.171.61" hide="yes" size="4" pos="26" show="219.145.171.61" value="db91ab3d"/>
    <field name="ip.dst" showname="Destination: 10.0.3.15 (10.0.3.15)" size="4" pos="30" show="10.0.3.15" value="0a00030f"/>
    <field name="ip.addr" showname="Source or Destination Address: 10.0.3.15 (10.0.3.15)" hide="yes" size="4" pos="30" show="10.0.3.15" value="0a00030f"/>
    <field name="ip.dst_host" showname="Destination Host: 10.0.3.15" hide="yes" size="4" pos="30" show="10.0.3.15" value="0a00030f"/>
    <field name="ip.host" showname="Source or Destination Host: 10.0.3.15" hide="yes" size="4" pos="30" show="10.0.3.15" value="0a00030f"/>
    <field name="" show="Source GeoIP: Unknown" size="4" pos="26" value="db91ab3d"/>
    <field name="" show="Destination GeoIP: Unknown" size="4" pos="30" value="0a00030f"/>
  </proto>
  <proto name="tcp" showname="Transmission Control Protocol, Src Port: 80 (80), Dst Port: 42879 (42879), Seq: 1, Ack: 1, Len: 0" size="20" pos="34">
    <field name="tcp.srcport" showname="Source Port: 80 (80)" size="2" pos="34" show="80" value="0050"/>
    <field name="tcp.dstport" showname="Destination Port: 42879 (42879)" size="2" pos="36" show="42879" value="a77f"/>
    <field name="tcp.port" showname="Source or Destination Port: 80" hide="yes" size="2" pos="34" show="80" value="0050"/>
    <field name="tcp.port" showname="Source or Destination Port: 42879" hide="yes" size="2" pos="36" show="42879" value="a77f"/>
    <field name="tcp.stream" showname="Stream index: 1" size="0" pos="34" show="1"/>
    <field name="tcp.len" showname="TCP Segment Len: 0" size="1" pos="46" show="0" value="50"/>
    <field name="tcp.seq" showname="Sequence number: 1    (relative sequence number)" size="4" pos="38" show="1" value="00d3ecf6"/>
    <field name="tcp.ack" showname="Acknowledgment number: 1    (relative ack number)" size="4" pos="42" show="1" value="f313b52f"/>
    <field name="tcp.hdr_len" showname="Header Length: 20 bytes" size="1" pos="46" show="20" value="50"/>
    <field name="tcp.flags" showname=".... 0000 0001 0001 = Flags: 0x011 (FIN, ACK)" size="2" pos="46" show="17" value="11" unmaskedvalue="5011">
      <field name="tcp.flags.res" showname="000. .... .... = Reserved: Not set" size="1" pos="46" show="0" value="0" unmaskedvalue="50"/>
      <field name="tcp.flags.ns" showname="...0 .... .... = Nonce: Not set" size="1" pos="46" show="0" value="0" unmaskedvalue="50"/>
      <field name="tcp.flags.cwr" showname=".... 0... .... = Congestion Window Reduced (CWR): Not set" size="1" pos="47" show="0" value="0" unmaskedvalue="11"/>
      <field name="tcp.flags.ecn" showname=".... .0.. .... = ECN-Echo: Not set" size="1" pos="47" show="0" value="0" unmaskedvalue="11"/>
      <field name="tcp.flags.urg" showname=".... ..0. .... = Urgent: Not set" size="1" pos="47" show="0" value="0" unmaskedvalue="11"/>
      <field name="tcp.flags.ack" showname=".... ...1 .... = Acknowledgment: Set" size="1" pos="47" show="1" value="1" unmaskedvalue="11"/>
      <field name="tcp.flags.push" showname=".... .... 0... = Push: Not set" size="1" pos="47" show="0" value="0" unmaskedvalue="11"/>
      <field name="tcp.flags.reset" showname=".... .... .0.. = Reset: Not set" size="1" pos="47" show="0" value="0" unmaskedvalue="11"/>
      <field name="tcp.flags.syn" showname=".... .... ..0. = Syn: Not set" size="1" pos="47" show="0" value="0" unmaskedvalue="11"/>
      <field name="tcp.flags.fin" showname=".... .... ...1 = Fin: Set" size="1" pos="47" show="1" value="1" unmaskedvalue="11">
        <field name="_ws.expert" showname="Expert Info (Chat/Sequence): Connection finish (FIN)" size="0" pos="47">
          <field name="tcp.connection.fin" showname="Connection finish (FIN)" size="0" pos="0" show="" value=""/>
          <field name="_ws.expert.message" showname="Message: Connection finish (FIN)" hide="yes" size="0" pos="0" show="Connection finish (FIN)"/>
          <field name="_ws.expert.severity" showname="Severity level: Chat" size="0" pos="0" show="2097152"/>
          <field name="_ws.expert.group" showname="Group: Sequence" size="0" pos="0" show="33554432"/>
        </field>
      </field>
    </field>
    <field name="tcp.window_size_value" showname="Window size value: 65535" size="2" pos="48" show="65535" value="ffff"/>
    <field name="tcp.window_size" showname="Calculated window size: 65535" size="2" pos="48" show="65535" value="ffff"/>
    <field name="tcp.window_size_scalefactor" showname="Window size scaling factor: -1 (unknown)" size="2" pos="48" show="-1" value="ffff"/>
    <field name="tcp.checksum" showname="Checksum: 0xde18 [validation disabled]" size="2" pos="50" show="56856" value="de18">
      <field name="tcp.checksum_good" showname="Good Checksum: False" size="2" pos="50" show="0" value="de18"/>
      <field name="tcp.checksum_bad" showname="Bad Checksum: False" size="2" pos="50" show="0" value="de18"/>
    </field>
    <field name="tcp.urgent_pointer" showname="Urgent pointer: 0" size="2" pos="52" show="0" value="0000"/>
  </proto>
</packet>


<packet>
  <proto name="geninfo" pos="0" showname="General information" size="54">
    <field name="num" pos="0" show="3" showname="Number" value="3" size="54"/>
    <field name="len" pos="0" show="54" showname="Frame Length" value="36" size="54"/>
    <field name="caplen" pos="0" show="54" showname="Captured Length" value="36" size="54"/>
    <field name="timestamp" pos="0" show="Jul 25, 2015 16:53:07.322167000 中国标准时间" showname="Captured Time" value="1437814387.322167000" size="54"/>
  </proto>
  <proto name="frame" showname="Frame 3: 54 bytes on wire (432 bits), 54 bytes captured (432 bits)" size="54" pos="0">
    <field name="frame.encap_type" showname="Encapsulation type: Ethernet (1)" size="0" pos="0" show="1"/>
    <field name="frame.time" showname="Arrival Time: Jul 25, 2015 16:53:07.322167000 \xe4\xb8\xad\xe5\x9b\xbd\xe6\xa0\x87\xe5\x87\x86\xe6\x97\xb6\xe9\x97\xb4" size="0" pos="0" show="Jul 25, 2015 16:53:07.322167000 \xe4\xb8\xad\xe5\x9b\xbd\xe6\xa0\x87\xe5\x87\x86\xe6\x97\xb6\xe9\x97\xb4"/>
    <field name="frame.offset_shift" showname="Time shift for this packet: 0.000000000 seconds" size="0" pos="0" show="0.000000000"/>
    <field name="frame.time_epoch" showname="Epoch Time: 1437814387.322167000 seconds" size="0" pos="0" show="1437814387.322167000"/>
    <field name="frame.time_delta" showname="Time delta from previous captured frame: 0.000001000 seconds" size="0" pos="0" show="0.000001000"/>
    <field name="frame.time_delta_displayed" showname="Time delta from previous displayed frame: 0.000001000 seconds" size="0" pos="0" show="0.000001000"/>
    <field name="frame.time_relative" showname="Time since reference or first frame: 0.000007000 seconds" size="0" pos="0" show="0.000007000"/>
    <field name="frame.number" showname="Frame Number: 3" size="0" pos="0" show="3"/>
    <field name="frame.len" showname="Frame Length: 54 bytes (432 bits)" size="0" pos="0" show="54"/>
    <field name="frame.cap_len" showname="Capture Length: 54 bytes (432 bits)" size="0" pos="0" show="54"/>
    <field name="frame.marked" showname="Frame is marked: False" size="0" pos="0" show="0"/>
    <field name="frame.ignored" showname="Frame is ignored: False" size="0" pos="0" show="0"/>
    <field name="frame.protocols" showname="Protocols in frame: eth:ethertype:ip:tcp" size="0" pos="0" show="eth:ethertype:ip:tcp"/>
  </proto>
  <proto name="eth" showname="Ethernet II, Src: RealtekU_12:35:02 (52:54:00:12:35:02), Dst: CadmusCo_4f:2a:73 (08:00:27:4f:2a:73)" size="14" pos="0">
    <field name="eth.dst" showname="Destination: CadmusCo_4f:2a:73 (08:00:27:4f:2a:73)" size="6" pos="0" show="08:00:27:4f:2a:73" value="0800274f2a73">
      <field name="eth.dst_resolved" showname="Destination (resolved): CadmusCo_4f:2a:73" hide="yes" size="6" pos="0" show="CadmusCo_4f:2a:73" value="0800274f2a73"/>
      <field name="eth.addr" showname="Address: CadmusCo_4f:2a:73 (08:00:27:4f:2a:73)" size="6" pos="0" show="08:00:27:4f:2a:73" value="0800274f2a73"/>
      <field name="eth.addr_resolved" showname="Address (resolved): CadmusCo_4f:2a:73" hide="yes" size="6" pos="0" show="CadmusCo_4f:2a:73" value="0800274f2a73"/>
      <field name="eth.lg" showname=".... ..0. .... .... .... .... = LG bit: Globally unique address (factory default)" size="3" pos="0" show="0" value="0" unmaskedvalue="080027"/>
      <field name="eth.ig" showname=".... ...0 .... .... .... .... = IG bit: Individual address (unicast)" size="3" pos="0" show="0" value="0" unmaskedvalue="080027"/>
    </field>
    <field name="eth.src" showname="Source: RealtekU_12:35:02 (52:54:00:12:35:02)" size="6" pos="6" show="52:54:00:12:35:02" value="525400123502">
      <field name="eth.src_resolved" showname="Source (resolved): RealtekU_12:35:02" hide="yes" size="6" pos="6" show="RealtekU_12:35:02" value="525400123502"/>
      <field name="eth.addr" showname="Address: RealtekU_12:35:02 (52:54:00:12:35:02)" size="6" pos="6" show="52:54:00:12:35:02" value="525400123502"/>
      <field name="eth.addr_resolved" showname="Address (resolved): RealtekU_12:35:02" hide="yes" size="6" pos="6" show="RealtekU_12:35:02" value="525400123502"/>
      <field name="eth.lg" showname=".... ..1. .... .... .... .... = LG bit: Locally administered address (this is NOT the factory default)" size="3" pos="6" show="1" value="1" unmaskedvalue="525400"/>
      <field name="eth.ig" showname=".... ...0 .... .... .... .... = IG bit: Individual address (unicast)" size="3" pos="6" show="0" value="0" unmaskedvalue="525400"/>
    </field>
    <field name="eth.type" showname="Type: IP (0x0800)" size="2" pos="12" show="2048" value="0800"/>
  </proto>
  <proto name="ip" showname="Internet Protocol Version 4, Src: 124.116.133.40 (124.116.133.40), Dst: 10.0.3.15 (10.0.3.15)" size="20" pos="14">
    <field name="ip.version" showname="Version: 4" size="1" pos="14" show="4" value="45"/>
    <field name="ip.hdr_len" showname="Header Length: 20 bytes" size="1" pos="14" show="20" value="45"/>
    <field name="ip.dsfield" showname="Differentiated Services Field: 0x00 (DSCP 0x00: Default; ECN: 0x00: Not-ECT (Not ECN-Capable Transport))" size="1" pos="15" show="0" value="00">
      <field name="ip.dsfield.dscp" showname="0000 00.. = Differentiated Services Codepoint: Default (0x00)" size="1" pos="15" show="0" value="0" unmaskedvalue="00"/>
      <field name="ip.dsfield.ecn" showname=".... ..00 = Explicit Congestion Notification: Not-ECT (Not ECN-Capable Transport) (0x00)" size="1" pos="15" show="0" value="0" unmaskedvalue="00"/>
    </field>
    <field name="ip.len" showname="Total Length: 40" size="2" pos="16" show="40" value="0028"/>
    <field name="ip.id" showname="Identification: 0x0049 (73)" size="2" pos="18" show="73" value="0049"/>
    <field name="ip.flags" showname="Flags: 0x00" size="1" pos="20" show="0" value="00">
      <field name="ip.flags.rb" showname="0... .... = Reserved bit: Not set" size="1" pos="20" show="0" value="00"/>
      <field name="ip.flags.df" showname=".0.. .... = Don&apos;t fragment: Not set" size="1" pos="20" show="0" value="00"/>
      <field name="ip.flags.mf" showname="..0. .... = More fragments: Not set" size="1" pos="20" show="0" value="00"/>
    </field>
    <field name="ip.frag_offset" showname="Fragment offset: 0" size="2" pos="20" show="0" value="0000"/>
    <field name="ip.ttl" showname="Time to live: 64" size="1" pos="22" show="64" value="40"/>
    <field name="ip.proto" showname="Protocol: TCP (6)" size="1" pos="23" show="6" value="06"/>
    <field name="ip.checksum" showname="Header checksum: 0x6bdc [validation disabled]" size="2" pos="24" show="27612" value="6bdc">
      <field name="ip.checksum_good" showname="Good: False" size="2" pos="24" show="0" value="6bdc"/>
      <field name="ip.checksum_bad" showname="Bad: False" size="2" pos="24" show="0" value="6bdc"/>
    </field>
    <field name="ip.src" showname="Source: 124.116.133.40 (124.116.133.40)" size="4" pos="26" show="124.116.133.40" value="7c748528"/>
    <field name="ip.addr" showname="Source or Destination Address: 124.116.133.40 (124.116.133.40)" hide="yes" size="4" pos="26" show="124.116.133.40" value="7c748528"/>
    <field name="ip.src_host" showname="Source Host: 124.116.133.40" hide="yes" size="4" pos="26" show="124.116.133.40" value="7c748528"/>
    <field name="ip.host" showname="Source or Destination Host: 124.116.133.40" hide="yes" size="4" pos="26" show="124.116.133.40" value="7c748528"/>
    <field name="ip.dst" showname="Destination: 10.0.3.15 (10.0.3.15)" size="4" pos="30" show="10.0.3.15" value="0a00030f"/>
    <field name="ip.addr" showname="Source or Destination Address: 10.0.3.15 (10.0.3.15)" hide="yes" size="4" pos="30" show="10.0.3.15" value="0a00030f"/>
    <field name="ip.dst_host" showname="Destination Host: 10.0.3.15" hide="yes" size="4" pos="30" show="10.0.3.15" value="0a00030f"/>
    <field name="ip.host" showname="Source or Destination Host: 10.0.3.15" hide="yes" size="4" pos="30" show="10.0.3.15" value="0a00030f"/>
    <field name="" show="Source GeoIP: Unknown" size="4" pos="26" value="7c748528"/>
    <field name="" show="Destination GeoIP: Unknown" size="4" pos="30" value="0a00030f"/>
  </proto>
  <proto name="tcp" showname="Transmission Control Protocol, Src Port: 80 (80), Dst Port: 46322 (46322), Seq: 1, Ack: 1, Len: 0" size="20" pos="34">
    <field name="tcp.srcport" showname="Source Port: 80 (80)" size="2" pos="34" show="80" value="0050"/>
    <field name="tcp.dstport" showname="Destination Port: 46322 (46322)" size="2" pos="36" show="46322" value="b4f2"/>
    <field name="tcp.port" showname="Source or Destination Port: 80" hide="yes" size="2" pos="34" show="80" value="0050"/>
    <field name="tcp.port" showname="Source or Destination Port: 46322" hide="yes" size="2" pos="36" show="46322" value="b4f2"/>
    <field name="tcp.stream" showname="Stream index: 2" size="0" pos="34" show="2"/>
    <field name="tcp.len" showname="TCP Segment Len: 0" size="1" pos="46" show="0" value="50"/>
    <field name="tcp.seq" showname="Sequence number: 1    (relative sequence number)" size="4" pos="38" show="1" value="00d5e0fb"/>
    <field name="tcp.ack" showname="Acknowledgment number: 1    (relative ack number)" size="4" pos="42" show="1" value="03f602e5"/>
    <field name="tcp.hdr_len" showname="Header Length: 20 bytes" size="1" pos="46" show="20" value="50"/>
    <field name="tcp.flags" showname=".... 0000 0001 0001 = Flags: 0x011 (FIN, ACK)" size="2" pos="46" show="17" value="11" unmaskedvalue="5011">
      <field name="tcp.flags.res" showname="000. .... .... = Reserved: Not set" size="1" pos="46" show="0" value="0" unmaskedvalue="50"/>
      <field name="tcp.flags.ns" showname="...0 .... .... = Nonce: Not set" size="1" pos="46" show="0" value="0" unmaskedvalue="50"/>
      <field name="tcp.flags.cwr" showname=".... 0... .... = Congestion Window Reduced (CWR): Not set" size="1" pos="47" show="0" value="0" unmaskedvalue="11"/>
      <field name="tcp.flags.ecn" showname=".... .0.. .... = ECN-Echo: Not set" size="1" pos="47" show="0" value="0" unmaskedvalue="11"/>
      <field name="tcp.flags.urg" showname=".... ..0. .... = Urgent: Not set" size="1" pos="47" show="0" value="0" unmaskedvalue="11"/>
      <field name="tcp.flags.ack" showname=".... ...1 .... = Acknowledgment: Set" size="1" pos="47" show="1" value="1" unmaskedvalue="11"/>
      <field name="tcp.flags.push" showname=".... .... 0... = Push: Not set" size="1" pos="47" show="0" value="0" unmaskedvalue="11"/>
      <field name="tcp.flags.reset" showname=".... .... .0.. = Reset: Not set" size="1" pos="47" show="0" value="0" unmaskedvalue="11"/>
      <field name="tcp.flags.syn" showname=".... .... ..0. = Syn: Not set" size="1" pos="47" show="0" value="0" unmaskedvalue="11"/>
      <field name="tcp.flags.fin" showname=".... .... ...1 = Fin: Set" size="1" pos="47" show="1" value="1" unmaskedvalue="11">
        <field name="_ws.expert" showname="Expert Info (Chat/Sequence): Connection finish (FIN)" size="0" pos="47">
          <field name="tcp.connection.fin" showname="Connection finish (FIN)" size="0" pos="0" show="" value=""/>
          <field name="_ws.expert.message" showname="Message: Connection finish (FIN)" hide="yes" size="0" pos="0" show="Connection finish (FIN)"/>
          <field name="_ws.expert.severity" showname="Severity level: Chat" size="0" pos="0" show="2097152"/>
          <field name="_ws.expert.group" showname="Group: Sequence" size="0" pos="0" show="33554432"/>
        </field>
      </field>
    </field>
    <field name="tcp.window_size_value" showname="Window size value: 65535" size="2" pos="48" show="65535" value="ffff"/>
    <field name="tcp.window_size" showname="Calculated window size: 65535" size="2" pos="48" show="65535" value="ffff"/>
    <field name="tcp.window_size_scalefactor" showname="Window size scaling factor: -1 (unknown)" size="2" pos="48" show="-1" value="ffff"/>
    <field name="tcp.checksum" showname="Checksum: 0x033a [validation disabled]" size="2" pos="50" show="826" value="033a">
      <field name="tcp.checksum_good" showname="Good Checksum: False" size="2" pos="50" show="0" value="033a"/>
      <field name="tcp.checksum_bad" showname="Bad Checksum: False" size="2" pos="50" show="0" value="033a"/>
    </field>
    <field name="tcp.urgent_pointer" showname="Urgent pointer: 0" size="2" pos="52" show="0" value="0000"/>
  </proto>
</packet>


<packet>
  <proto name="geninfo" pos="0" showname="General information" size="76">
    <field name="num" pos="0" show="4" showname="Number" value="4" size="76"/>
    <field name="len" pos="0" show="76" showname="Frame Length" value="4c" size="76"/>
    <field name="caplen" pos="0" show="76" showname="Captured Length" value="4c" size="76"/>
    <field name="timestamp" pos="0" show="Jul 25, 2015 16:53:09.706398000 中国标准时间" showname="Captured Time" value="1437814389.706398000" size="76"/>
  </proto>
  <proto name="frame" showname="Frame 4: 76 bytes on wire (608 bits), 76 bytes captured (608 bits)" size="76" pos="0">
    <field name="frame.encap_type" showname="Encapsulation type: Ethernet (1)" size="0" pos="0" show="1"/>
    <field name="frame.time" showname="Arrival Time: Jul 25, 2015 16:53:09.706398000 \xe4\xb8\xad\xe5\x9b\xbd\xe6\xa0\x87\xe5\x87\x86\xe6\x97\xb6\xe9\x97\xb4" size="0" pos="0" show="Jul 25, 2015 16:53:09.706398000 \xe4\xb8\xad\xe5\x9b\xbd\xe6\xa0\x87\xe5\x87\x86\xe6\x97\xb6\xe9\x97\xb4"/>
    <field name="frame.offset_shift" showname="Time shift for this packet: 0.000000000 seconds" size="0" pos="0" show="0.000000000"/>
    <field name="frame.time_epoch" showname="Epoch Time: 1437814389.706398000 seconds" size="0" pos="0" show="1437814389.706398000"/>
    <field name="frame.time_delta" showname="Time delta from previous captured frame: 2.384231000 seconds" size="0" pos="0" show="2.384231000"/>
    <field name="frame.time_delta_displayed" showname="Time delta from previous displayed frame: 2.384231000 seconds" size="0" pos="0" show="2.384231000"/>
    <field name="frame.time_relative" showname="Time since reference or first frame: 2.384238000 seconds" size="0" pos="0" show="2.384238000"/>
    <field name="frame.number" showname="Frame Number: 4" size="0" pos="0" show="4"/>
    <field name="frame.len" showname="Frame Length: 76 bytes (608 bits)" size="0" pos="0" show="76"/>
    <field name="frame.cap_len" showname="Capture Length: 76 bytes (608 bits)" size="0" pos="0" show="76"/>
    <field name="frame.marked" showname="Frame is marked: False" size="0" pos="0" show="0"/>
    <field name="frame.ignored" showname="Frame is ignored: False" size="0" pos="0" show="0"/>
    <field name="frame.protocols" showname="Protocols in frame: eth:ethertype:ip:udp:dns" size="0" pos="0" show="eth:ethertype:ip:udp:dns"/>
  </proto>
  <proto name="eth" showname="Ethernet II, Src: CadmusCo_4f:2a:73 (08:00:27:4f:2a:73), Dst: RealtekU_12:35:02 (52:54:00:12:35:02)" size="14" pos="0">
    <field name="eth.dst" showname="Destination: RealtekU_12:35:02 (52:54:00:12:35:02)" size="6" pos="0" show="52:54:00:12:35:02" value="525400123502">
      <field name="eth.dst_resolved" showname="Destination (resolved): RealtekU_12:35:02" hide="yes" size="6" pos="0" show="RealtekU_12:35:02" value="525400123502"/>
      <field name="eth.addr" showname="Address: RealtekU_12:35:02 (52:54:00:12:35:02)" size="6" pos="0" show="52:54:00:12:35:02" value="525400123502"/>
      <field name="eth.addr_resolved" showname="Address (resolved): RealtekU_12:35:02" hide="yes" size="6" pos="0" show="RealtekU_12:35:02" value="525400123502"/>
      <field name="eth.lg" showname=".... ..1. .... .... .... .... = LG bit: Locally administered address (this is NOT the factory default)" size="3" pos="0" show="1" value="1" unmaskedvalue="525400"/>
      <field name="eth.ig" showname=".... ...0 .... .... .... .... = IG bit: Individual address (unicast)" size="3" pos="0" show="0" value="0" unmaskedvalue="525400"/>
    </field>
    <field name="eth.src" showname="Source: CadmusCo_4f:2a:73 (08:00:27:4f:2a:73)" size="6" pos="6" show="08:00:27:4f:2a:73" value="0800274f2a73">
      <field name="eth.src_resolved" showname="Source (resolved): CadmusCo_4f:2a:73" hide="yes" size="6" pos="6" show="CadmusCo_4f:2a:73" value="0800274f2a73"/>
      <field name="eth.addr" showname="Address: CadmusCo_4f:2a:73 (08:00:27:4f:2a:73)" size="6" pos="6" show="08:00:27:4f:2a:73" value="0800274f2a73"/>
      <field name="eth.addr_resolved" showname="Address (resolved): CadmusCo_4f:2a:73" hide="yes" size="6" pos="6" show="CadmusCo_4f:2a:73" value="0800274f2a73"/>
      <field name="eth.lg" showname=".... ..0. .... .... .... .... = LG bit: Globally unique address (factory default)" size="3" pos="6" show="0" value="0" unmaskedvalue="080027"/>
      <field name="eth.ig" showname=".... ...0 .... .... .... .... = IG bit: Individual address (unicast)" size="3" pos="6" show="0" value="0" unmaskedvalue="080027"/>
    </field>
    <field name="eth.type" showname="Type: IP (0x0800)" size="2" pos="12" show="2048" value="0800"/>
  </proto>
  <proto name="ip" showname="Internet Protocol Version 4, Src: 10.0.3.15 (10.0.3.15), Dst: 61.134.1.4 (61.134.1.4)" size="20" pos="14">
    <field name="ip.version" showname="Version: 4" size="1" pos="14" show="4" value="45"/>
    <field name="ip.hdr_len" showname="Header Length: 20 bytes" size="1" pos="14" show="20" value="45"/>
    <field name="ip.dsfield" showname="Differentiated Services Field: 0x00 (DSCP 0x00: Default; ECN: 0x00: Not-ECT (Not ECN-Capable Transport))" size="1" pos="15" show="0" value="00">
      <field name="ip.dsfield.dscp" showname="0000 00.. = Differentiated Services Codepoint: Default (0x00)" size="1" pos="15" show="0" value="0" unmaskedvalue="00"/>
      <field name="ip.dsfield.ecn" showname=".... ..00 = Explicit Congestion Notification: Not-ECT (Not ECN-Capable Transport) (0x00)" size="1" pos="15" show="0" value="0" unmaskedvalue="00"/>
    </field>
    <field name="ip.len" showname="Total Length: 62" size="2" pos="16" show="62" value="003e"/>
    <field name="ip.id" showname="Identification: 0x79f1 (31217)" size="2" pos="18" show="31217" value="79f1"/>
    <field name="ip.flags" showname="Flags: 0x02 (Don&apos;t Fragment)" size="1" pos="20" show="2" value="40">
      <field name="ip.flags.rb" showname="0... .... = Reserved bit: Not set" size="1" pos="20" show="0" value="40"/>
      <field name="ip.flags.df" showname=".1.. .... = Don&apos;t fragment: Set" size="1" pos="20" show="1" value="40"/>
      <field name="ip.flags.mf" showname="..0. .... = More fragments: Not set" size="1" pos="20" show="0" value="40"/>
    </field>
    <field name="ip.frag_offset" showname="Fragment offset: 0" size="2" pos="20" show="0" value="4000"/>
    <field name="ip.ttl" showname="Time to live: 64" size="1" pos="22" show="64" value="40"/>
    <field name="ip.proto" showname="Protocol: UDP (17)" size="1" pos="23" show="17" value="11"/>
    <field name="ip.checksum" showname="Header checksum: 0x7525 [validation disabled]" size="2" pos="24" show="29989" value="7525">
      <field name="ip.checksum_good" showname="Good: False" size="2" pos="24" show="0" value="7525"/>
      <field name="ip.checksum_bad" showname="Bad: False" size="2" pos="24" show="0" value="7525"/>
    </field>
    <field name="ip.src" showname="Source: 10.0.3.15 (10.0.3.15)" size="4" pos="26" show="10.0.3.15" value="0a00030f"/>
    <field name="ip.addr" showname="Source or Destination Address: 10.0.3.15 (10.0.3.15)" hide="yes" size="4" pos="26" show="10.0.3.15" value="0a00030f"/>
    <field name="ip.src_host" showname="Source Host: 10.0.3.15" hide="yes" size="4" pos="26" show="10.0.3.15" value="0a00030f"/>
    <field name="ip.host" showname="Source or Destination Host: 10.0.3.15" hide="yes" size="4" pos="26" show="10.0.3.15" value="0a00030f"/>
    <field name="ip.dst" showname="Destination: 61.134.1.4 (61.134.1.4)" size="4" pos="30" show="61.134.1.4" value="3d860104"/>
    <field name="ip.addr" showname="Source or Destination Address: 61.134.1.4 (61.134.1.4)" hide="yes" size="4" pos="30" show="61.134.1.4" value="3d860104"/>
    <field name="ip.dst_host" showname="Destination Host: 61.134.1.4" hide="yes" size="4" pos="30" show="61.134.1.4" value="3d860104"/>
    <field name="ip.host" showname="Source or Destination Host: 61.134.1.4" hide="yes" size="4" pos="30" show="61.134.1.4" value="3d860104"/>
    <field name="" show="Source GeoIP: Unknown" size="4" pos="26" value="0a00030f"/>
    <field name="" show="Destination GeoIP: Unknown" size="4" pos="30" value="3d860104"/>
  </proto>
  <proto name="udp" showname="User Datagram Protocol, Src Port: 62205 (62205), Dst Port: 53 (53)" size="8" pos="34">
    <field name="udp.srcport" showname="Source Port: 62205 (62205)" size="2" pos="34" show="62205" value="f2fd"/>
    <field name="udp.dstport" showname="Destination Port: 53 (53)" size="2" pos="36" show="53" value="0035"/>
    <field name="udp.port" showname="Source or Destination Port: 62205" hide="yes" size="2" pos="34" show="62205" value="f2fd"/>
    <field name="udp.port" showname="Source or Destination Port: 53" hide="yes" size="2" pos="36" show="53" value="0035"/>
    <field name="udp.length" showname="Length: 42" size="2" pos="38" show="42" value="002a"/>
    <field name="udp.checksum_coverage" showname="Checksum coverage: 42" hide="yes" size="0" pos="38" show="42"/>
    <field name="udp.checksum" showname="Checksum: 0x4bd4 [validation disabled]" size="2" pos="40" show="19412" value="4bd4">
      <field name="udp.checksum_good" showname="Good Checksum: False" size="2" pos="40" show="0" value="4bd4"/>
      <field name="udp.checksum_bad" showname="Bad Checksum: False" size="2" pos="40" show="0" value="4bd4"/>
    </field>
    <field name="udp.stream" showname="Stream index: 0" size="0" pos="42" show="0"/>
  </proto>
  <proto name="dns" showname="Domain Name System (query)" size="34" pos="42">
    <field name="dns.id" showname="Transaction ID: 0xeabe" size="2" pos="42" show="60094" value="eabe"/>
    <field name="dns.flags" showname="Flags: 0x0100 Standard query" size="2" pos="44" show="256" value="0100">
      <field name="dns.flags.response" showname="0... .... .... .... = Response: Message is a query" size="2" pos="44" show="0" value="0" unmaskedvalue="0100"/>
      <field name="dns.flags.opcode" showname=".000 0... .... .... = Opcode: Standard query (0)" size="2" pos="44" show="0" value="0" unmaskedvalue="0100"/>
      <field name="dns.flags.truncated" showname=".... ..0. .... .... = Truncated: Message is not truncated" size="2" pos="44" show="0" value="0" unmaskedvalue="0100"/>
      <field name="dns.flags.recdesired" showname=".... ...1 .... .... = Recursion desired: Do query recursively" size="2" pos="44" show="1" value="1" unmaskedvalue="0100"/>
      <field name="dns.flags.z" showname=".... .... .0.. .... = Z: reserved (0)" size="2" pos="44" show="0" value="0" unmaskedvalue="0100"/>
      <field name="dns.flags.checkdisable" showname=".... .... ...0 .... = Non-authenticated data: Unacceptable" size="2" pos="44" show="0" value="0" unmaskedvalue="0100"/>
    </field>
    <field name="dns.count.queries" showname="Questions: 1" size="2" pos="46" show="1" value="0001"/>
    <field name="dns.count.answers" showname="Answer RRs: 0" size="2" pos="48" show="0" value="0000"/>
    <field name="dns.count.auth_rr" showname="Authority RRs: 0" size="2" pos="50" show="0" value="0000"/>
    <field name="dns.count.add_rr" showname="Additional RRs: 0" size="2" pos="52" show="0" value="0000"/>
    <field name="" show="Queries" size="22" pos="54" value="07636c6f75642d710464756261036e65740000010001">
      <field name="" show="cloud-q.duba.net: type A, class IN" size="22" pos="54" value="07636c6f75642d710464756261036e65740000010001">
        <field name="dns.qry.name" showname="Name: cloud-q.duba.net" size="18" pos="54" show="cloud-q.duba.net" value="07636c6f75642d710464756261036e657400"/>
        <field name="dns.qry.name.len" showname="Name Length: 16" size="18" pos="54" show="16" value="07636c6f75642d710464756261036e657400"/>
        <field name="dns.count.labels" showname="Label Count: 3" size="18" pos="54" show="3" value="07636c6f75642d710464756261036e657400"/>
        <field name="dns.qry.type" showname="Type: A (Host Address) (1)" size="2" pos="72" show="1" value="0001"/>
        <field name="dns.qry.class" showname="Class: IN (0x0001)" size="2" pos="74" show="1" value="0001"/>
      </field>
    </field>
  </proto>
</packet>


<packet>
  <proto name="geninfo" pos="0" showname="General information" size="108">
    <field name="num" pos="0" show="5" showname="Number" value="5" size="108"/>
    <field name="len" pos="0" show="108" showname="Frame Length" value="6c" size="108"/>
    <field name="caplen" pos="0" show="108" showname="Captured Length" value="6c" size="108"/>
    <field name="timestamp" pos="0" show="Jul 25, 2015 16:53:09.709158000 中国标准时间" showname="Captured Time" value="1437814389.709158000" size="108"/>
  </proto>
  <proto name="frame" showname="Frame 5: 108 bytes on wire (864 bits), 108 bytes captured (864 bits)" size="108" pos="0">
    <field name="frame.encap_type" showname="Encapsulation type: Ethernet (1)" size="0" pos="0" show="1"/>
    <field name="frame.time" showname="Arrival Time: Jul 25, 2015 16:53:09.709158000 \xe4\xb8\xad\xe5\x9b\xbd\xe6\xa0\x87\xe5\x87\x86\xe6\x97\xb6\xe9\x97\xb4" size="0" pos="0" show="Jul 25, 2015 16:53:09.709158000 \xe4\xb8\xad\xe5\x9b\xbd\xe6\xa0\x87\xe5\x87\x86\xe6\x97\xb6\xe9\x97\xb4"/>
    <field name="frame.offset_shift" showname="Time shift for this packet: 0.000000000 seconds" size="0" pos="0" show="0.000000000"/>
    <field name="frame.time_epoch" showname="Epoch Time: 1437814389.709158000 seconds" size="0" pos="0" show="1437814389.709158000"/>
    <field name="frame.time_delta" showname="Time delta from previous captured frame: 0.002760000 seconds" size="0" pos="0" show="0.002760000"/>
    <field name="frame.time_delta_displayed" showname="Time delta from previous displayed frame: 0.002760000 seconds" size="0" pos="0" show="0.002760000"/>
    <field name="frame.time_relative" showname="Time since reference or first frame: 2.386998000 seconds" size="0" pos="0" show="2.386998000"/>
    <field name="frame.number" showname="Frame Number: 5" size="0" pos="0" show="5"/>
    <field name="frame.len" showname="Frame Length: 108 bytes (864 bits)" size="0" pos="0" show="108"/>
    <field name="frame.cap_len" showname="Capture Length: 108 bytes (864 bits)" size="0" pos="0" show="108"/>
    <field name="frame.marked" showname="Frame is marked: False" size="0" pos="0" show="0"/>
    <field name="frame.ignored" showname="Frame is ignored: False" size="0" pos="0" show="0"/>
    <field name="frame.protocols" showname="Protocols in frame: eth:ethertype:ip:udp:dns" size="0" pos="0" show="eth:ethertype:ip:udp:dns"/>
  </proto>
  <proto name="eth" showname="Ethernet II, Src: RealtekU_12:35:02 (52:54:00:12:35:02), Dst: CadmusCo_4f:2a:73 (08:00:27:4f:2a:73)" size="14" pos="0">
    <field name="eth.dst" showname="Destination: CadmusCo_4f:2a:73 (08:00:27:4f:2a:73)" size="6" pos="0" show="08:00:27:4f:2a:73" value="0800274f2a73">
      <field name="eth.dst_resolved" showname="Destination (resolved): CadmusCo_4f:2a:73" hide="yes" size="6" pos="0" show="CadmusCo_4f:2a:73" value="0800274f2a73"/>
      <field name="eth.addr" showname="Address: CadmusCo_4f:2a:73 (08:00:27:4f:2a:73)" size="6" pos="0" show="08:00:27:4f:2a:73" value="0800274f2a73"/>
      <field name="eth.addr_resolved" showname="Address (resolved): CadmusCo_4f:2a:73" hide="yes" size="6" pos="0" show="CadmusCo_4f:2a:73" value="0800274f2a73"/>
      <field name="eth.lg" showname=".... ..0. .... .... .... .... = LG bit: Globally unique address (factory default)" size="3" pos="0" show="0" value="0" unmaskedvalue="080027"/>
      <field name="eth.ig" showname=".... ...0 .... .... .... .... = IG bit: Individual address (unicast)" size="3" pos="0" show="0" value="0" unmaskedvalue="080027"/>
    </field>
    <field name="eth.src" showname="Source: RealtekU_12:35:02 (52:54:00:12:35:02)" size="6" pos="6" show="52:54:00:12:35:02" value="525400123502">
      <field name="eth.src_resolved" showname="Source (resolved): RealtekU_12:35:02" hide="yes" size="6" pos="6" show="RealtekU_12:35:02" value="525400123502"/>
      <field name="eth.addr" showname="Address: RealtekU_12:35:02 (52:54:00:12:35:02)" size="6" pos="6" show="52:54:00:12:35:02" value="525400123502"/>
      <field name="eth.addr_resolved" showname="Address (resolved): RealtekU_12:35:02" hide="yes" size="6" pos="6" show="RealtekU_12:35:02" value="525400123502"/>
      <field name="eth.lg" showname=".... ..1. .... .... .... .... = LG bit: Locally administered address (this is NOT the factory default)" size="3" pos="6" show="1" value="1" unmaskedvalue="525400"/>
      <field name="eth.ig" showname=".... ...0 .... .... .... .... = IG bit: Individual address (unicast)" size="3" pos="6" show="0" value="0" unmaskedvalue="525400"/>
    </field>
    <field name="eth.type" showname="Type: IP (0x0800)" size="2" pos="12" show="2048" value="0800"/>
  </proto>
  <proto name="ip" showname="Internet Protocol Version 4, Src: 61.134.1.4 (61.134.1.4), Dst: 10.0.3.15 (10.0.3.15)" size="20" pos="14">
    <field name="ip.version" showname="Version: 4" size="1" pos="14" show="4" value="45"/>
    <field name="ip.hdr_len" showname="Header Length: 20 bytes" size="1" pos="14" show="20" value="45"/>
    <field name="ip.dsfield" showname="Differentiated Services Field: 0x00 (DSCP 0x00: Default; ECN: 0x00: Not-ECT (Not ECN-Capable Transport))" size="1" pos="15" show="0" value="00">
      <field name="ip.dsfield.dscp" showname="0000 00.. = Differentiated Services Codepoint: Default (0x00)" size="1" pos="15" show="0" value="0" unmaskedvalue="00"/>
      <field name="ip.dsfield.ecn" showname=".... ..00 = Explicit Congestion Notification: Not-ECT (Not ECN-Capable Transport) (0x00)" size="1" pos="15" show="0" value="0" unmaskedvalue="00"/>
    </field>
    <field name="ip.len" showname="Total Length: 94" size="2" pos="16" show="94" value="005e"/>
    <field name="ip.id" showname="Identification: 0x004a (74)" size="2" pos="18" show="74" value="004a"/>
    <field name="ip.flags" showname="Flags: 0x00" size="1" pos="20" show="0" value="00">
      <field name="ip.flags.rb" showname="0... .... = Reserved bit: Not set" size="1" pos="20" show="0" value="00"/>
      <field name="ip.flags.df" showname=".0.. .... = Don&apos;t fragment: Not set" size="1" pos="20" show="0" value="00"/>
      <field name="ip.flags.mf" showname="..0. .... = More fragments: Not set" size="1" pos="20" show="0" value="00"/>
    </field>
    <field name="ip.frag_offset" showname="Fragment offset: 0" size="2" pos="20" show="0" value="0000"/>
    <field name="ip.ttl" showname="Time to live: 64" size="1" pos="22" show="64" value="40"/>
    <field name="ip.proto" showname="Protocol: UDP (17)" size="1" pos="23" show="17" value="11"/>
    <field name="ip.checksum" showname="Header checksum: 0x2ead [validation disabled]" size="2" pos="24" show="11949" value="2ead">
      <field name="ip.checksum_good" showname="Good: False" size="2" pos="24" show="0" value="2ead"/>
      <field name="ip.checksum_bad" showname="Bad: False" size="2" pos="24" show="0" value="2ead"/>
    </field>
    <field name="ip.src" showname="Source: 61.134.1.4 (61.134.1.4)" size="4" pos="26" show="61.134.1.4" value="3d860104"/>
    <field name="ip.addr" showname="Source or Destination Address: 61.134.1.4 (61.134.1.4)" hide="yes" size="4" pos="26" show="61.134.1.4" value="3d860104"/>
    <field name="ip.src_host" showname="Source Host: 61.134.1.4" hide="yes" size="4" pos="26" show="61.134.1.4" value="3d860104"/>
    <field name="ip.host" showname="Source or Destination Host: 61.134.1.4" hide="yes" size="4" pos="26" show="61.134.1.4" value="3d860104"/>
    <field name="ip.dst" showname="Destination: 10.0.3.15 (10.0.3.15)" size="4" pos="30" show="10.0.3.15" value="0a00030f"/>
    <field name="ip.addr" showname="Source or Destination Address: 10.0.3.15 (10.0.3.15)" hide="yes" size="4" pos="30" show="10.0.3.15" value="0a00030f"/>
    <field name="ip.dst_host" showname="Destination Host: 10.0.3.15" hide="yes" size="4" pos="30" show="10.0.3.15" value="0a00030f"/>
    <field name="ip.host" showname="Source or Destination Host: 10.0.3.15" hide="yes" size="4" pos="30" show="10.0.3.15" value="0a00030f"/>
    <field name="" show="Source GeoIP: Unknown" size="4" pos="26" value="3d860104"/>
    <field name="" show="Destination GeoIP: Unknown" size="4" pos="30" value="0a00030f"/>
  </proto>
  <proto name="udp" showname="User Datagram Protocol, Src Port: 53 (53), Dst Port: 62205 (62205)" size="8" pos="34">
    <field name="udp.srcport" showname="Source Port: 53 (53)" size="2" pos="34" show="53" value="0035"/>
    <field name="udp.dstport" showname="Destination Port: 62205 (62205)" size="2" pos="36" show="62205" value="f2fd"/>
    <field name="udp.port" showname="Source or Destination Port: 53" hide="yes" size="2" pos="34" show="53" value="0035"/>
    <field name="udp.port" showname="Source or Destination Port: 62205" hide="yes" size="2" pos="36" show="62205" value="f2fd"/>
    <field name="udp.length" showname="Length: 74" size="2" pos="38" show="74" value="004a"/>
    <field name="udp.checksum_coverage" showname="Checksum coverage: 74" hide="yes" size="0" pos="38" show="74"/>
    <field name="udp.checksum" showname="Checksum: 0xea4b [validation disabled]" size="2" pos="40" show="59979" value="ea4b">
      <field name="udp.checksum_good" showname="Good Checksum: False" size="2" pos="40" show="0" value="ea4b"/>
      <field name="udp.checksum_bad" showname="Bad Checksum: False" size="2" pos="40" show="0" value="ea4b"/>
    </field>
    <field name="udp.stream" showname="Stream index: 0" size="0" pos="42" show="0"/>
  </proto>
  <proto name="dns" showname="Domain Name System (response)" size="66" pos="42">
    <field name="dns.response_to" showname="Request In: 4" size="0" pos="42" show="4"/>
    <field name="dns.time" showname="Time: 0.002760000 seconds" size="0" pos="42" show="0.002760000"/>
    <field name="dns.id" showname="Transaction ID: 0xeabe" size="2" pos="42" show="60094" value="eabe"/>
    <field name="dns.flags" showname="Flags: 0x8180 Standard query response, No error" size="2" pos="44" show="33152" value="8180">
      <field name="dns.flags.response" showname="1... .... .... .... = Response: Message is a response" size="2" pos="44" show="1" value="1" unmaskedvalue="8180"/>
      <field name="dns.flags.opcode" showname=".000 0... .... .... = Opcode: Standard query (0)" size="2" pos="44" show="0" value="0" unmaskedvalue="8180"/>
      <field name="dns.flags.authoritative" showname=".... .0.. .... .... = Authoritative: Server is not an authority for domain" size="2" pos="44" show="0" value="0" unmaskedvalue="8180"/>
      <field name="dns.flags.truncated" showname=".... ..0. .... .... = Truncated: Message is not truncated" size="2" pos="44" show="0" value="0" unmaskedvalue="8180"/>
      <field name="dns.flags.recdesired" showname=".... ...1 .... .... = Recursion desired: Do query recursively" size="2" pos="44" show="1" value="1" unmaskedvalue="8180"/>
      <field name="dns.flags.recavail" showname=".... .... 1... .... = Recursion available: Server can do recursive queries" size="2" pos="44" show="1" value="1" unmaskedvalue="8180"/>
      <field name="dns.flags.z" showname=".... .... .0.. .... = Z: reserved (0)" size="2" pos="44" show="0" value="0" unmaskedvalue="8180"/>
      <field name="dns.flags.authenticated" showname=".... .... ..0. .... = Answer authenticated: Answer/authority portion was not authenticated by the server" size="2" pos="44" show="0" value="0" unmaskedvalue="8180"/>
      <field name="dns.flags.checkdisable" showname=".... .... ...0 .... = Non-authenticated data: Unacceptable" size="2" pos="44" show="0" value="0" unmaskedvalue="8180"/>
      <field name="dns.flags.rcode" showname=".... .... .... 0000 = Reply code: No error (0)" size="2" pos="44" show="0" value="0" unmaskedvalue="8180"/>
    </field>
    <field name="dns.count.queries" showname="Questions: 1" size="2" pos="46" show="1" value="0001"/>
    <field name="dns.count.answers" showname="Answer RRs: 2" size="2" pos="48" show="2" value="0002"/>
    <field name="dns.count.auth_rr" showname="Authority RRs: 0" size="2" pos="50" show="0" value="0000"/>
    <field name="dns.count.add_rr" showname="Additional RRs: 0" size="2" pos="52" show="0" value="0000"/>
    <field name="" show="Queries" size="22" pos="54" value="07636c6f75642d710464756261036e65740000010001">
      <field name="" show="cloud-q.duba.net: type A, class IN" size="22" pos="54" value="07636c6f75642d710464756261036e65740000010001">
        <field name="dns.qry.name" showname="Name: cloud-q.duba.net" size="18" pos="54" show="cloud-q.duba.net" value="07636c6f75642d710464756261036e657400"/>
        <field name="dns.qry.name.len" showname="Name Length: 16" size="18" pos="54" show="16" value="07636c6f75642d710464756261036e657400"/>
        <field name="dns.count.labels" showname="Label Count: 3" size="18" pos="54" show="3" value="07636c6f75642d710464756261036e657400"/>
        <field name="dns.qry.type" showname="Type: A (Host Address) (1)" size="2" pos="72" show="1" value="0001"/>
        <field name="dns.qry.class" showname="Class: IN (0x0001)" size="2" pos="74" show="1" value="0001"/>
      </field>
    </field>
    <field name="" show="Answers" size="32" pos="76" value="c00c00010001000000ff00047793926ec00c00010001000000ff00047793926d">
      <field name="" show="cloud-q.duba.net: type A, class IN, addr 119.147.146.110" size="16" pos="76" value="c00c00010001000000ff00047793926e">
        <field name="dns.resp.name" showname="Name: cloud-q.duba.net" size="2" pos="76" show="cloud-q.duba.net" value="c00c"/>
        <field name="dns.resp.type" showname="Type: A (Host Address) (1)" size="2" pos="78" show="1" value="0001"/>
        <field name="dns.resp.class" showname="Class: IN (0x0001)" size="2" pos="80" show="1" value="0001"/>
        <field name="dns.resp.ttl" showname="Time to live: 255" size="4" pos="82" show="255" value="000000ff"/>
        <field name="dns.resp.len" showname="Data length: 4" size="2" pos="86" show="4" value="0004"/>
        <field name="dns.a" showname="Address: 119.147.146.110 (119.147.146.110)" size="4" pos="88" show="119.147.146.110" value="7793926e"/>
      </field>
      <field name="" show="cloud-q.duba.net: type A, class IN, addr 119.147.146.109" size="16" pos="92" value="c00c00010001000000ff00047793926d">
        <field name="dns.resp.name" showname="Name: cloud-q.duba.net" size="2" pos="92" show="cloud-q.duba.net" value="c00c"/>
        <field name="dns.resp.type" showname="Type: A (Host Address) (1)" size="2" pos="94" show="1" value="0001"/>
        <field name="dns.resp.class" showname="Class: IN (0x0001)" size="2" pos="96" show="1" value="0001"/>
        <field name="dns.resp.ttl" showname="Time to live: 255" size="4" pos="98" show="255" value="000000ff"/>
        <field name="dns.resp.len" showname="Data length: 4" size="2" pos="102" show="4" value="0004"/>
        <field name="dns.a" showname="Address: 119.147.146.109 (119.147.146.109)" size="4" pos="104" show="119.147.146.109" value="7793926d"/>
      </field>
    </field>
  </proto>
</packet>


<packet>
  <proto name="geninfo" pos="0" showname="General information" size="75">
    <field name="num" pos="0" show="6" showname="Number" value="6" size="75"/>
    <field name="len" pos="0" show="75" showname="Frame Length" value="4b" size="75"/>
    <field name="caplen" pos="0" show="75" showname="Captured Length" value="4b" size="75"/>
    <field name="timestamp" pos="0" show="Jul 25, 2015 16:53:11.405564000 中国标准时间" showname="Captured Time" value="1437814391.405564000" size="75"/>
  </proto>
  <proto name="frame" showname="Frame 6: 75 bytes on wire (600 bits), 75 bytes captured (600 bits)" size="75" pos="0">
    <field name="frame.encap_type" showname="Encapsulation type: Ethernet (1)" size="0" pos="0" show="1"/>
    <field name="frame.time" showname="Arrival Time: Jul 25, 2015 16:53:11.405564000 \xe4\xb8\xad\xe5\x9b\xbd\xe6\xa0\x87\xe5\x87\x86\xe6\x97\xb6\xe9\x97\xb4" size="0" pos="0" show="Jul 25, 2015 16:53:11.405564000 \xe4\xb8\xad\xe5\x9b\xbd\xe6\xa0\x87\xe5\x87\x86\xe6\x97\xb6\xe9\x97\xb4"/>
    <field name="frame.offset_shift" showname="Time shift for this packet: 0.000000000 seconds" size="0" pos="0" show="0.000000000"/>
    <field name="frame.time_epoch" showname="Epoch Time: 1437814391.405564000 seconds" size="0" pos="0" show="1437814391.405564000"/>
    <field name="frame.time_delta" showname="Time delta from previous captured frame: 1.696406000 seconds" size="0" pos="0" show="1.696406000"/>
    <field name="frame.time_delta_displayed" showname="Time delta from previous displayed frame: 1.696406000 seconds" size="0" pos="0" show="1.696406000"/>
    <field name="frame.time_relative" showname="Time since reference or first frame: 4.083404000 seconds" size="0" pos="0" show="4.083404000"/>
    <field name="frame.number" showname="Frame Number: 6" size="0" pos="0" show="6"/>
    <field name="frame.len" showname="Frame Length: 75 bytes (600 bits)" size="0" pos="0" show="75"/>
    <field name="frame.cap_len" showname="Capture Length: 75 bytes (600 bits)" size="0" pos="0" show="75"/>
    <field name="frame.marked" showname="Frame is marked: False" size="0" pos="0" show="0"/>
    <field name="frame.ignored" showname="Frame is ignored: False" size="0" pos="0" show="0"/>
    <field name="frame.protocols" showname="Protocols in frame: eth:ethertype:ip:udp:dns" size="0" pos="0" show="eth:ethertype:ip:udp:dns"/>
  </proto>
  <proto name="eth" showname="Ethernet II, Src: CadmusCo_4f:2a:73 (08:00:27:4f:2a:73), Dst: RealtekU_12:35:02 (52:54:00:12:35:02)" size="14" pos="0">
    <field name="eth.dst" showname="Destination: RealtekU_12:35:02 (52:54:00:12:35:02)" size="6" pos="0" show="52:54:00:12:35:02" value="525400123502">
      <field name="eth.dst_resolved" showname="Destination (resolved): RealtekU_12:35:02" hide="yes" size="6" pos="0" show="RealtekU_12:35:02" value="525400123502"/>
      <field name="eth.addr" showname="Address: RealtekU_12:35:02 (52:54:00:12:35:02)" size="6" pos="0" show="52:54:00:12:35:02" value="525400123502"/>
      <field name="eth.addr_resolved" showname="Address (resolved): RealtekU_12:35:02" hide="yes" size="6" pos="0" show="RealtekU_12:35:02" value="525400123502"/>
      <field name="eth.lg" showname=".... ..1. .... .... .... .... = LG bit: Locally administered address (this is NOT the factory default)" size="3" pos="0" show="1" value="1" unmaskedvalue="525400"/>
      <field name="eth.ig" showname=".... ...0 .... .... .... .... = IG bit: Individual address (unicast)" size="3" pos="0" show="0" value="0" unmaskedvalue="525400"/>
    </field>
    <field name="eth.src" showname="Source: CadmusCo_4f:2a:73 (08:00:27:4f:2a:73)" size="6" pos="6" show="08:00:27:4f:2a:73" value="0800274f2a73">
      <field name="eth.src_resolved" showname="Source (resolved): CadmusCo_4f:2a:73" hide="yes" size="6" pos="6" show="CadmusCo_4f:2a:73" value="0800274f2a73"/>
      <field name="eth.addr" showname="Address: CadmusCo_4f:2a:73 (08:00:27:4f:2a:73)" size="6" pos="6" show="08:00:27:4f:2a:73" value="0800274f2a73"/>
      <field name="eth.addr_resolved" showname="Address (resolved): CadmusCo_4f:2a:73" hide="yes" size="6" pos="6" show="CadmusCo_4f:2a:73" value="0800274f2a73"/>
      <field name="eth.lg" showname=".... ..0. .... .... .... .... = LG bit: Globally unique address (factory default)" size="3" pos="6" show="0" value="0" unmaskedvalue="080027"/>
      <field name="eth.ig" showname=".... ...0 .... .... .... .... = IG bit: Individual address (unicast)" size="3" pos="6" show="0" value="0" unmaskedvalue="080027"/>
    </field>
    <field name="eth.type" showname="Type: IP (0x0800)" size="2" pos="12" show="2048" value="0800"/>
  </proto>
  <proto name="ip" showname="Internet Protocol Version 4, Src: 10.0.3.15 (10.0.3.15), Dst: 61.134.1.4 (61.134.1.4)" size="20" pos="14">
    <field name="ip.version" showname="Version: 4" size="1" pos="14" show="4" value="45"/>
    <field name="ip.hdr_len" showname="Header Length: 20 bytes" size="1" pos="14" show="20" value="45"/>
    <field name="ip.dsfield" showname="Differentiated Services Field: 0x00 (DSCP 0x00: Default; ECN: 0x00: Not-ECT (Not ECN-Capable Transport))" size="1" pos="15" show="0" value="00">
      <field name="ip.dsfield.dscp" showname="0000 00.. = Differentiated Services Codepoint: Default (0x00)" size="1" pos="15" show="0" value="0" unmaskedvalue="00"/>
      <field name="ip.dsfield.ecn" showname=".... ..00 = Explicit Congestion Notification: Not-ECT (Not ECN-Capable Transport) (0x00)" size="1" pos="15" show="0" value="0" unmaskedvalue="00"/>
    </field>
    <field name="ip.len" showname="Total Length: 61" size="2" pos="16" show="61" value="003d"/>
    <field name="ip.id" showname="Identification: 0x79f2 (31218)" size="2" pos="18" show="31218" value="79f2"/>
    <field name="ip.flags" showname="Flags: 0x02 (Don&apos;t Fragment)" size="1" pos="20" show="2" value="40">
      <field name="ip.flags.rb" showname="0... .... = Reserved bit: Not set" size="1" pos="20" show="0" value="40"/>
      <field name="ip.flags.df" showname=".1.. .... = Don&apos;t fragment: Set" size="1" pos="20" show="1" value="40"/>
      <field name="ip.flags.mf" showname="..0. .... = More fragments: Not set" size="1" pos="20" show="0" value="40"/>
    </field>
    <field name="ip.frag_offset" showname="Fragment offset: 0" size="2" pos="20" show="0" value="4000"/>
    <field name="ip.ttl" showname="Time to live: 64" size="1" pos="22" show="64" value="40"/>
    <field name="ip.proto" showname="Protocol: UDP (17)" size="1" pos="23" show="17" value="11"/>
    <field name="ip.checksum" showname="Header checksum: 0x7525 [validation disabled]" size="2" pos="24" show="29989" value="7525">
      <field name="ip.checksum_good" showname="Good: False" size="2" pos="24" show="0" value="7525"/>
      <field name="ip.checksum_bad" showname="Bad: False" size="2" pos="24" show="0" value="7525"/>
    </field>
    <field name="ip.src" showname="Source: 10.0.3.15 (10.0.3.15)" size="4" pos="26" show="10.0.3.15" value="0a00030f"/>
    <field name="ip.addr" showname="Source or Destination Address: 10.0.3.15 (10.0.3.15)" hide="yes" size="4" pos="26" show="10.0.3.15" value="0a00030f"/>
    <field name="ip.src_host" showname="Source Host: 10.0.3.15" hide="yes" size="4" pos="26" show="10.0.3.15" value="0a00030f"/>
    <field name="ip.host" showname="Source or Destination Host: 10.0.3.15" hide="yes" size="4" pos="26" show="10.0.3.15" value="0a00030f"/>
    <field name="ip.dst" showname="Destination: 61.134.1.4 (61.134.1.4)" size="4" pos="30" show="61.134.1.4" value="3d860104"/>
    <field name="ip.addr" showname="Source or Destination Address: 61.134.1.4 (61.134.1.4)" hide="yes" size="4" pos="30" show="61.134.1.4" value="3d860104"/>
    <field name="ip.dst_host" showname="Destination Host: 61.134.1.4" hide="yes" size="4" pos="30" show="61.134.1.4" value="3d860104"/>
    <field name="ip.host" showname="Source or Destination Host: 61.134.1.4" hide="yes" size="4" pos="30" show="61.134.1.4" value="3d860104"/>
    <field name="" show="Source GeoIP: Unknown" size="4" pos="26" value="0a00030f"/>
    <field name="" show="Destination GeoIP: Unknown" size="4" pos="30" value="3d860104"/>
  </proto>
  <proto name="udp" showname="User Datagram Protocol, Src Port: 4302 (4302), Dst Port: 53 (53)" size="8" pos="34">
    <field name="udp.srcport" showname="Source Port: 4302 (4302)" size="2" pos="34" show="4302" value="10ce"/>
    <field name="udp.dstport" showname="Destination Port: 53 (53)" size="2" pos="36" show="53" value="0035"/>
    <field name="udp.port" showname="Source or Destination Port: 4302" hide="yes" size="2" pos="34" show="4302" value="10ce"/>
    <field name="udp.port" showname="Source or Destination Port: 53" hide="yes" size="2" pos="36" show="53" value="0035"/>
    <field name="udp.length" showname="Length: 41" size="2" pos="38" show="41" value="0029"/>
    <field name="udp.checksum_coverage" showname="Checksum coverage: 41" hide="yes" size="0" pos="38" show="41"/>
    <field name="udp.checksum" showname="Checksum: 0x4bd3 [validation disabled]" size="2" pos="40" show="19411" value="4bd3">
      <field name="udp.checksum_good" showname="Good Checksum: False" size="2" pos="40" show="0" value="4bd3"/>
      <field name="udp.checksum_bad" showname="Bad Checksum: False" size="2" pos="40" show="0" value="4bd3"/>
    </field>
    <field name="udp.stream" showname="Stream index: 1" size="0" pos="42" show="1"/>
  </proto>
  <proto name="dns" showname="Domain Name System (query)" size="33" pos="42">
    <field name="dns.id" showname="Transaction ID: 0xe215" size="2" pos="42" show="57877" value="e215"/>
    <field name="dns.flags" showname="Flags: 0x0100 Standard query" size="2" pos="44" show="256" value="0100">
      <field name="dns.flags.response" showname="0... .... .... .... = Response: Message is a query" size="2" pos="44" show="0" value="0" unmaskedvalue="0100"/>
      <field name="dns.flags.opcode" showname=".000 0... .... .... = Opcode: Standard query (0)" size="2" pos="44" show="0" value="0" unmaskedvalue="0100"/>
      <field name="dns.flags.truncated" showname=".... ..0. .... .... = Truncated: Message is not truncated" size="2" pos="44" show="0" value="0" unmaskedvalue="0100"/>
      <field name="dns.flags.recdesired" showname=".... ...1 .... .... = Recursion desired: Do query recursively" size="2" pos="44" show="1" value="1" unmaskedvalue="0100"/>
      <field name="dns.flags.z" showname=".... .... .0.. .... = Z: reserved (0)" size="2" pos="44" show="0" value="0" unmaskedvalue="0100"/>
      <field name="dns.flags.checkdisable" showname=".... .... ...0 .... = Non-authenticated data: Unacceptable" size="2" pos="44" show="0" value="0" unmaskedvalue="0100"/>
    </field>
    <field name="dns.count.queries" showname="Questions: 1" size="2" pos="46" show="1" value="0001"/>
    <field name="dns.count.answers" showname="Answer RRs: 0" size="2" pos="48" show="0" value="0000"/>
    <field name="dns.count.auth_rr" showname="Authority RRs: 0" size="2" pos="50" show="0" value="0000"/>
    <field name="dns.count.add_rr" showname="Additional RRs: 0" size="2" pos="52" show="0" value="0000"/>
    <field name="" show="Queries" size="21" pos="54" value="04616472640674617875616e036e65740000010001">
      <field name="" show="adrd.taxuan.net: type A, class IN" size="21" pos="54" value="04616472640674617875616e036e65740000010001">
        <field name="dns.qry.name" showname="Name: adrd.taxuan.net" size="17" pos="54" show="adrd.taxuan.net" value="04616472640674617875616e036e657400"/>
        <field name="dns.qry.name.len" showname="Name Length: 15" size="17" pos="54" show="15" value="04616472640674617875616e036e657400"/>
        <field name="dns.count.labels" showname="Label Count: 3" size="17" pos="54" show="3" value="04616472640674617875616e036e657400"/>
        <field name="dns.qry.type" showname="Type: A (Host Address) (1)" size="2" pos="71" show="1" value="0001"/>
        <field name="dns.qry.class" showname="Class: IN (0x0001)" size="2" pos="73" show="1" value="0001"/>
      </field>
    </field>
  </proto>
</packet>


<packet>
  <proto name="geninfo" pos="0" showname="General information" size="42">
    <field name="num" pos="0" show="7" showname="Number" value="7" size="42"/>
    <field name="len" pos="0" show="42" showname="Frame Length" value="2a" size="42"/>
    <field name="caplen" pos="0" show="42" showname="Captured Length" value="2a" size="42"/>
    <field name="timestamp" pos="0" show="Jul 25, 2015 16:53:14.706437000 中国标准时间" showname="Captured Time" value="1437814394.706437000" size="42"/>
  </proto>
  <proto name="frame" showname="Frame 7: 42 bytes on wire (336 bits), 42 bytes captured (336 bits)" size="42" pos="0">
    <field name="frame.encap_type" showname="Encapsulation type: Ethernet (1)" size="0" pos="0" show="1"/>
    <field name="frame.time" showname="Arrival Time: Jul 25, 2015 16:53:14.706437000 \xe4\xb8\xad\xe5\x9b\xbd\xe6\xa0\x87\xe5\x87\x86\xe6\x97\xb6\xe9\x97\xb4" size="0" pos="0" show="Jul 25, 2015 16:53:14.706437000 \xe4\xb8\xad\xe5\x9b\xbd\xe6\xa0\x87\xe5\x87\x86\xe6\x97\xb6\xe9\x97\xb4"/>
    <field name="frame.offset_shift" showname="Time shift for this packet: 0.000000000 seconds" size="0" pos="0" show="0.000000000"/>
    <field name="frame.time_epoch" showname="Epoch Time: 1437814394.706437000 seconds" size="0" pos="0" show="1437814394.706437000"/>
    <field name="frame.time_delta" showname="Time delta from previous captured frame: 3.300873000 seconds" size="0" pos="0" show="3.300873000"/>
    <field name="frame.time_delta_displayed" showname="Time delta from previous displayed frame: 3.300873000 seconds" size="0" pos="0" show="3.300873000"/>
    <field name="frame.time_relative" showname="Time since reference or first frame: 7.384277000 seconds" size="0" pos="0" show="7.384277000"/>
    <field name="frame.number" showname="Frame Number: 7" size="0" pos="0" show="7"/>
    <field name="frame.len" showname="Frame Length: 42 bytes (336 bits)" size="0" pos="0" show="42"/>
    <field name="frame.cap_len" showname="Capture Length: 42 bytes (336 bits)" size="0" pos="0" show="42"/>
    <field name="frame.marked" showname="Frame is marked: False" size="0" pos="0" show="0"/>
    <field name="frame.ignored" showname="Frame is ignored: False" size="0" pos="0" show="0"/>
    <field name="frame.protocols" showname="Protocols in frame: eth:ethertype:arp" size="0" pos="0" show="eth:ethertype:arp"/>
  </proto>
  <proto name="eth" showname="Ethernet II, Src: CadmusCo_4f:2a:73 (08:00:27:4f:2a:73), Dst: RealtekU_12:35:02 (52:54:00:12:35:02)" size="14" pos="0">
    <field name="eth.dst" showname="Destination: RealtekU_12:35:02 (52:54:00:12:35:02)" size="6" pos="0" show="52:54:00:12:35:02" value="525400123502">
      <field name="eth.dst_resolved" showname="Destination (resolved): RealtekU_12:35:02" hide="yes" size="6" pos="0" show="RealtekU_12:35:02" value="525400123502"/>
      <field name="eth.addr" showname="Address: RealtekU_12:35:02 (52:54:00:12:35:02)" size="6" pos="0" show="52:54:00:12:35:02" value="525400123502"/>
      <field name="eth.addr_resolved" showname="Address (resolved): RealtekU_12:35:02" hide="yes" size="6" pos="0" show="RealtekU_12:35:02" value="525400123502"/>
      <field name="eth.lg" showname=".... ..1. .... .... .... .... = LG bit: Locally administered address (this is NOT the factory default)" size="3" pos="0" show="1" value="1" unmaskedvalue="525400"/>
      <field name="eth.ig" showname=".... ...0 .... .... .... .... = IG bit: Individual address (unicast)" size="3" pos="0" show="0" value="0" unmaskedvalue="525400"/>
    </field>
    <field name="eth.src" showname="Source: CadmusCo_4f:2a:73 (08:00:27:4f:2a:73)" size="6" pos="6" show="08:00:27:4f:2a:73" value="0800274f2a73">
      <field name="eth.src_resolved" showname="Source (resolved): CadmusCo_4f:2a:73" hide="yes" size="6" pos="6" show="CadmusCo_4f:2a:73" value="0800274f2a73"/>
      <field name="eth.addr" showname="Address: CadmusCo_4f:2a:73 (08:00:27:4f:2a:73)" size="6" pos="6" show="08:00:27:4f:2a:73" value="0800274f2a73"/>
      <field name="eth.addr_resolved" showname="Address (resolved): CadmusCo_4f:2a:73" hide="yes" size="6" pos="6" show="CadmusCo_4f:2a:73" value="0800274f2a73"/>
      <field name="eth.lg" showname=".... ..0. .... .... .... .... = LG bit: Globally unique address (factory default)" size="3" pos="6" show="0" value="0" unmaskedvalue="080027"/>
      <field name="eth.ig" showname=".... ...0 .... .... .... .... = IG bit: Individual address (unicast)" size="3" pos="6" show="0" value="0" unmaskedvalue="080027"/>
    </field>
    <field name="eth.type" showname="Type: ARP (0x0806)" size="2" pos="12" show="2054" value="0806"/>
  </proto>
  <proto name="arp" showname="Address Resolution Protocol (request)" size="28" pos="14">
    <field name="arp.hw.type" showname="Hardware type: Ethernet (1)" size="2" pos="14" show="1" value="0001"/>
    <field name="arp.proto.type" showname="Protocol type: IP (0x0800)" size="2" pos="16" show="2048" value="0800"/>
    <field name="arp.hw.size" showname="Hardware size: 6" size="1" pos="18" show="6" value="06"/>
    <field name="arp.proto.size" showname="Protocol size: 4" size="1" pos="19" show="4" value="04"/>
    <field name="arp.opcode" showname="Opcode: request (1)" size="2" pos="20" show="1" value="0001"/>
    <field name="arp.src.hw_mac" showname="Sender MAC address: CadmusCo_4f:2a:73 (08:00:27:4f:2a:73)" size="6" pos="22" show="08:00:27:4f:2a:73" value="0800274f2a73"/>
    <field name="arp.src.proto_ipv4" showname="Sender IP address: 10.0.3.15 (10.0.3.15)" size="4" pos="28" show="10.0.3.15" value="0a00030f"/>
    <field name="arp.dst.hw_mac" showname="Target MAC address: 00:00:00_00:00:00 (00:00:00:00:00:00)" size="6" pos="32" show="00:00:00:00:00:00" value="000000000000"/>
    <field name="arp.dst.proto_ipv4" showname="Target IP address: 10.0.3.2 (10.0.3.2)" size="4" pos="38" show="10.0.3.2" value="0a000302"/>
  </proto>
</packet>


<packet>
  <proto name="geninfo" pos="0" showname="General information" size="42">
    <field name="num" pos="0" show="8" showname="Number" value="8" size="42"/>
    <field name="len" pos="0" show="42" showname="Frame Length" value="2a" size="42"/>
    <field name="caplen" pos="0" show="42" showname="Captured Length" value="2a" size="42"/>
    <field name="timestamp" pos="0" show="Jul 25, 2015 16:53:14.709635000 中国标准时间" showname="Captured Time" value="1437814394.709635000" size="42"/>
  </proto>
  <proto name="frame" showname="Frame 8: 42 bytes on wire (336 bits), 42 bytes captured (336 bits)" size="42" pos="0">
    <field name="frame.encap_type" showname="Encapsulation type: Ethernet (1)" size="0" pos="0" show="1"/>
    <field name="frame.time" showname="Arrival Time: Jul 25, 2015 16:53:14.709635000 \xe4\xb8\xad\xe5\x9b\xbd\xe6\xa0\x87\xe5\x87\x86\xe6\x97\xb6\xe9\x97\xb4" size="0" pos="0" show="Jul 25, 2015 16:53:14.709635000 \xe4\xb8\xad\xe5\x9b\xbd\xe6\xa0\x87\xe5\x87\x86\xe6\x97\xb6\xe9\x97\xb4"/>
    <field name="frame.offset_shift" showname="Time shift for this packet: 0.000000000 seconds" size="0" pos="0" show="0.000000000"/>
    <field name="frame.time_epoch" showname="Epoch Time: 1437814394.709635000 seconds" size="0" pos="0" show="1437814394.709635000"/>
    <field name="frame.time_delta" showname="Time delta from previous captured frame: 0.003198000 seconds" size="0" pos="0" show="0.003198000"/>
    <field name="frame.time_delta_displayed" showname="Time delta from previous displayed frame: 0.003198000 seconds" size="0" pos="0" show="0.003198000"/>
    <field name="frame.time_relative" showname="Time since reference or first frame: 7.387475000 seconds" size="0" pos="0" show="7.387475000"/>
    <field name="frame.number" showname="Frame Number: 8" size="0" pos="0" show="8"/>
    <field name="frame.len" showname="Frame Length: 42 bytes (336 bits)" size="0" pos="0" show="42"/>
    <field name="frame.cap_len" showname="Capture Length: 42 bytes (336 bits)" size="0" pos="0" show="42"/>
    <field name="frame.marked" showname="Frame is marked: False" size="0" pos="0" show="0"/>
    <field name="frame.ignored" showname="Frame is ignored: False" size="0" pos="0" show="0"/>
    <field name="frame.protocols" showname="Protocols in frame: eth:ethertype:arp" size="0" pos="0" show="eth:ethertype:arp"/>
  </proto>
  <proto name="eth" showname="Ethernet II, Src: RealtekU_12:35:02 (52:54:00:12:35:02), Dst: CadmusCo_4f:2a:73 (08:00:27:4f:2a:73)" size="14" pos="0">
    <field name="eth.dst" showname="Destination: CadmusCo_4f:2a:73 (08:00:27:4f:2a:73)" size="6" pos="0" show="08:00:27:4f:2a:73" value="0800274f2a73">
      <field name="eth.dst_resolved" showname="Destination (resolved): CadmusCo_4f:2a:73" hide="yes" size="6" pos="0" show="CadmusCo_4f:2a:73" value="0800274f2a73"/>
      <field name="eth.addr" showname="Address: CadmusCo_4f:2a:73 (08:00:27:4f:2a:73)" size="6" pos="0" show="08:00:27:4f:2a:73" value="0800274f2a73"/>
      <field name="eth.addr_resolved" showname="Address (resolved): CadmusCo_4f:2a:73" hide="yes" size="6" pos="0" show="CadmusCo_4f:2a:73" value="0800274f2a73"/>
      <field name="eth.lg" showname=".... ..0. .... .... .... .... = LG bit: Globally unique address (factory default)" size="3" pos="0" show="0" value="0" unmaskedvalue="080027"/>
      <field name="eth.ig" showname=".... ...0 .... .... .... .... = IG bit: Individual address (unicast)" size="3" pos="0" show="0" value="0" unmaskedvalue="080027"/>
    </field>
    <field name="eth.src" showname="Source: RealtekU_12:35:02 (52:54:00:12:35:02)" size="6" pos="6" show="52:54:00:12:35:02" value="525400123502">
      <field name="eth.src_resolved" showname="Source (resolved): RealtekU_12:35:02" hide="yes" size="6" pos="6" show="RealtekU_12:35:02" value="525400123502"/>
      <field name="eth.addr" showname="Address: RealtekU_12:35:02 (52:54:00:12:35:02)" size="6" pos="6" show="52:54:00:12:35:02" value="525400123502"/>
      <field name="eth.addr_resolved" showname="Address (resolved): RealtekU_12:35:02" hide="yes" size="6" pos="6" show="RealtekU_12:35:02" value="525400123502"/>
      <field name="eth.lg" showname=".... ..1. .... .... .... .... = LG bit: Locally administered address (this is NOT the factory default)" size="3" pos="6" show="1" value="1" unmaskedvalue="525400"/>
      <field name="eth.ig" showname=".... ...0 .... .... .... .... = IG bit: Individual address (unicast)" size="3" pos="6" show="0" value="0" unmaskedvalue="525400"/>
    </field>
    <field name="eth.type" showname="Type: ARP (0x0806)" size="2" pos="12" show="2054" value="0806"/>
  </proto>
  <proto name="arp" showname="Address Resolution Protocol (reply)" size="28" pos="14">
    <field name="arp.hw.type" showname="Hardware type: Ethernet (1)" size="2" pos="14" show="1" value="0001"/>
    <field name="arp.proto.type" showname="Protocol type: IP (0x0800)" size="2" pos="16" show="2048" value="0800"/>
    <field name="arp.hw.size" showname="Hardware size: 6" size="1" pos="18" show="6" value="06"/>
    <field name="arp.proto.size" showname="Protocol size: 4" size="1" pos="19" show="4" value="04"/>
    <field name="arp.opcode" showname="Opcode: reply (2)" size="2" pos="20" show="2" value="0002"/>
    <field name="arp.src.hw_mac" showname="Sender MAC address: RealtekU_12:35:02 (52:54:00:12:35:02)" size="6" pos="22" show="52:54:00:12:35:02" value="525400123502"/>
    <field name="arp.src.proto_ipv4" showname="Sender IP address: 10.0.3.2 (10.0.3.2)" size="4" pos="28" show="10.0.3.2" value="0a000302"/>
    <field name="arp.dst.hw_mac" showname="Target MAC address: CadmusCo_4f:2a:73 (08:00:27:4f:2a:73)" size="6" pos="32" show="08:00:27:4f:2a:73" value="0800274f2a73"/>
    <field name="arp.dst.proto_ipv4" showname="Target IP address: 10.0.3.15 (10.0.3.15)" size="4" pos="38" show="10.0.3.15" value="0a00030f"/>
  </proto>
</packet>


<packet>
  <proto name="geninfo" pos="0" showname="General information" size="91">
    <field name="num" pos="0" show="9" showname="Number" value="9" size="91"/>
    <field name="len" pos="0" show="91" showname="Frame Length" value="5b" size="91"/>
    <field name="caplen" pos="0" show="91" showname="Captured Length" value="5b" size="91"/>
    <field name="timestamp" pos="0" show="Jul 25, 2015 16:53:15.355965000 中国标准时间" showname="Captured Time" value="1437814395.355965000" size="91"/>
  </proto>
  <proto name="frame" showname="Frame 9: 91 bytes on wire (728 bits), 91 bytes captured (728 bits)" size="91" pos="0">
    <field name="frame.encap_type" showname="Encapsulation type: Ethernet (1)" size="0" pos="0" show="1"/>
    <field name="frame.time" showname="Arrival Time: Jul 25, 2015 16:53:15.355965000 \xe4\xb8\xad\xe5\x9b\xbd\xe6\xa0\x87\xe5\x87\x86\xe6\x97\xb6\xe9\x97\xb4" size="0" pos="0" show="Jul 25, 2015 16:53:15.355965000 \xe4\xb8\xad\xe5\x9b\xbd\xe6\xa0\x87\xe5\x87\x86\xe6\x97\xb6\xe9\x97\xb4"/>
    <field name="frame.offset_shift" showname="Time shift for this packet: 0.000000000 seconds" size="0" pos="0" show="0.000000000"/>
    <field name="frame.time_epoch" showname="Epoch Time: 1437814395.355965000 seconds" size="0" pos="0" show="1437814395.355965000"/>
    <field name="frame.time_delta" showname="Time delta from previous captured frame: 0.646330000 seconds" size="0" pos="0" show="0.646330000"/>
    <field name="frame.time_delta_displayed" showname="Time delta from previous displayed frame: 0.646330000 seconds" size="0" pos="0" show="0.646330000"/>
    <field name="frame.time_relative" showname="Time since reference or first frame: 8.033805000 seconds" size="0" pos="0" show="8.033805000"/>
    <field name="frame.number" showname="Frame Number: 9" size="0" pos="0" show="9"/>
    <field name="frame.len" showname="Frame Length: 91 bytes (728 bits)" size="0" pos="0" show="91"/>
    <field name="frame.cap_len" showname="Capture Length: 91 bytes (728 bits)" size="0" pos="0" show="91"/>
    <field name="frame.marked" showname="Frame is marked: False" size="0" pos="0" show="0"/>
    <field name="frame.ignored" showname="Frame is ignored: False" size="0" pos="0" show="0"/>
    <field name="frame.protocols" showname="Protocols in frame: eth:ethertype:ip:udp:dns" size="0" pos="0" show="eth:ethertype:ip:udp:dns"/>
  </proto>
  <proto name="eth" showname="Ethernet II, Src: RealtekU_12:35:02 (52:54:00:12:35:02), Dst: CadmusCo_4f:2a:73 (08:00:27:4f:2a:73)" size="14" pos="0">
    <field name="eth.dst" showname="Destination: CadmusCo_4f:2a:73 (08:00:27:4f:2a:73)" size="6" pos="0" show="08:00:27:4f:2a:73" value="0800274f2a73">
      <field name="eth.dst_resolved" showname="Destination (resolved): CadmusCo_4f:2a:73" hide="yes" size="6" pos="0" show="CadmusCo_4f:2a:73" value="0800274f2a73"/>
      <field name="eth.addr" showname="Address: CadmusCo_4f:2a:73 (08:00:27:4f:2a:73)" size="6" pos="0" show="08:00:27:4f:2a:73" value="0800274f2a73"/>
      <field name="eth.addr_resolved" showname="Address (resolved): CadmusCo_4f:2a:73" hide="yes" size="6" pos="0" show="CadmusCo_4f:2a:73" value="0800274f2a73"/>
      <field name="eth.lg" showname=".... ..0. .... .... .... .... = LG bit: Globally unique address (factory default)" size="3" pos="0" show="0" value="0" unmaskedvalue="080027"/>
      <field name="eth.ig" showname=".... ...0 .... .... .... .... = IG bit: Individual address (unicast)" size="3" pos="0" show="0" value="0" unmaskedvalue="080027"/>
    </field>
    <field name="eth.src" showname="Source: RealtekU_12:35:02 (52:54:00:12:35:02)" size="6" pos="6" show="52:54:00:12:35:02" value="525400123502">
      <field name="eth.src_resolved" showname="Source (resolved): RealtekU_12:35:02" hide="yes" size="6" pos="6" show="RealtekU_12:35:02" value="525400123502"/>
      <field name="eth.addr" showname="Address: RealtekU_12:35:02 (52:54:00:12:35:02)" size="6" pos="6" show="52:54:00:12:35:02" value="525400123502"/>
      <field name="eth.addr_resolved" showname="Address (resolved): RealtekU_12:35:02" hide="yes" size="6" pos="6" show="RealtekU_12:35:02" value="525400123502"/>
      <field name="eth.lg" showname=".... ..1. .... .... .... .... = LG bit: Locally administered address (this is NOT the factory default)" size="3" pos="6" show="1" value="1" unmaskedvalue="525400"/>
      <field name="eth.ig" showname=".... ...0 .... .... .... .... = IG bit: Individual address (unicast)" size="3" pos="6" show="0" value="0" unmaskedvalue="525400"/>
    </field>
    <field name="eth.type" showname="Type: IP (0x0800)" size="2" pos="12" show="2048" value="0800"/>
  </proto>
  <proto name="ip" showname="Internet Protocol Version 4, Src: 61.134.1.4 (61.134.1.4), Dst: 10.0.3.15 (10.0.3.15)" size="20" pos="14">
    <field name="ip.version" showname="Version: 4" size="1" pos="14" show="4" value="45"/>
    <field name="ip.hdr_len" showname="Header Length: 20 bytes" size="1" pos="14" show="20" value="45"/>
    <field name="ip.dsfield" showname="Differentiated Services Field: 0x00 (DSCP 0x00: Default; ECN: 0x00: Not-ECT (Not ECN-Capable Transport))" size="1" pos="15" show="0" value="00">
      <field name="ip.dsfield.dscp" showname="0000 00.. = Differentiated Services Codepoint: Default (0x00)" size="1" pos="15" show="0" value="0" unmaskedvalue="00"/>
      <field name="ip.dsfield.ecn" showname=".... ..00 = Explicit Congestion Notification: Not-ECT (Not ECN-Capable Transport) (0x00)" size="1" pos="15" show="0" value="0" unmaskedvalue="00"/>
    </field>
    <field name="ip.len" showname="Total Length: 77" size="2" pos="16" show="77" value="004d"/>
    <field name="ip.id" showname="Identification: 0x004b (75)" size="2" pos="18" show="75" value="004b"/>
    <field name="ip.flags" showname="Flags: 0x00" size="1" pos="20" show="0" value="00">
      <field name="ip.flags.rb" showname="0... .... = Reserved bit: Not set" size="1" pos="20" show="0" value="00"/>
      <field name="ip.flags.df" showname=".0.. .... = Don&apos;t fragment: Not set" size="1" pos="20" show="0" value="00"/>
      <field name="ip.flags.mf" showname="..0. .... = More fragments: Not set" size="1" pos="20" show="0" value="00"/>
    </field>
    <field name="ip.frag_offset" showname="Fragment offset: 0" size="2" pos="20" show="0" value="0000"/>
    <field name="ip.ttl" showname="Time to live: 64" size="1" pos="22" show="64" value="40"/>
    <field name="ip.proto" showname="Protocol: UDP (17)" size="1" pos="23" show="17" value="11"/>
    <field name="ip.checksum" showname="Header checksum: 0x2ebd [validation disabled]" size="2" pos="24" show="11965" value="2ebd">
      <field name="ip.checksum_good" showname="Good: False" size="2" pos="24" show="0" value="2ebd"/>
      <field name="ip.checksum_bad" showname="Bad: False" size="2" pos="24" show="0" value="2ebd"/>
    </field>
    <field name="ip.src" showname="Source: 61.134.1.4 (61.134.1.4)" size="4" pos="26" show="61.134.1.4" value="3d860104"/>
    <field name="ip.addr" showname="Source or Destination Address: 61.134.1.4 (61.134.1.4)" hide="yes" size="4" pos="26" show="61.134.1.4" value="3d860104"/>
    <field name="ip.src_host" showname="Source Host: 61.134.1.4" hide="yes" size="4" pos="26" show="61.134.1.4" value="3d860104"/>
    <field name="ip.host" showname="Source or Destination Host: 61.134.1.4" hide="yes" size="4" pos="26" show="61.134.1.4" value="3d860104"/>
    <field name="ip.dst" showname="Destination: 10.0.3.15 (10.0.3.15)" size="4" pos="30" show="10.0.3.15" value="0a00030f"/>
    <field name="ip.addr" showname="Source or Destination Address: 10.0.3.15 (10.0.3.15)" hide="yes" size="4" pos="30" show="10.0.3.15" value="0a00030f"/>
    <field name="ip.dst_host" showname="Destination Host: 10.0.3.15" hide="yes" size="4" pos="30" show="10.0.3.15" value="0a00030f"/>
    <field name="ip.host" showname="Source or Destination Host: 10.0.3.15" hide="yes" size="4" pos="30" show="10.0.3.15" value="0a00030f"/>
    <field name="" show="Source GeoIP: Unknown" size="4" pos="26" value="3d860104"/>
    <field name="" show="Destination GeoIP: Unknown" size="4" pos="30" value="0a00030f"/>
  </proto>
  <proto name="udp" showname="User Datagram Protocol, Src Port: 53 (53), Dst Port: 4302 (4302)" size="8" pos="34">
    <field name="udp.srcport" showname="Source Port: 53 (53)" size="2" pos="34" show="53" value="0035"/>
    <field name="udp.dstport" showname="Destination Port: 4302 (4302)" size="2" pos="36" show="4302" value="10ce"/>
    <field name="udp.port" showname="Source or Destination Port: 53" hide="yes" size="2" pos="34" show="53" value="0035"/>
    <field name="udp.port" showname="Source or Destination Port: 4302" hide="yes" size="2" pos="36" show="4302" value="10ce"/>
    <field name="udp.length" showname="Length: 57" size="2" pos="38" show="57" value="0039"/>
    <field name="udp.checksum_coverage" showname="Checksum coverage: 57" hide="yes" size="0" pos="38" show="57"/>
    <field name="udp.checksum" showname="Checksum: 0x5425 [validation disabled]" size="2" pos="40" show="21541" value="5425">
      <field name="udp.checksum_good" showname="Good Checksum: False" size="2" pos="40" show="0" value="5425"/>
      <field name="udp.checksum_bad" showname="Bad Checksum: False" size="2" pos="40" show="0" value="5425"/>
    </field>
    <field name="udp.stream" showname="Stream index: 1" size="0" pos="42" show="1"/>
  </proto>
  <proto name="dns" showname="Domain Name System (response)" size="49" pos="42">
    <field name="dns.response_to" showname="Request In: 6" size="0" pos="42" show="6"/>
    <field name="dns.time" showname="Time: 3.950401000 seconds" size="0" pos="42" show="3.950401000"/>
    <field name="dns.id" showname="Transaction ID: 0xe215" size="2" pos="42" show="57877" value="e215"/>
    <field name="dns.flags" showname="Flags: 0x8180 Standard query response, No error" size="2" pos="44" show="33152" value="8180">
      <field name="dns.flags.response" showname="1... .... .... .... = Response: Message is a response" size="2" pos="44" show="1" value="1" unmaskedvalue="8180"/>
      <field name="dns.flags.opcode" showname=".000 0... .... .... = Opcode: Standard query (0)" size="2" pos="44" show="0" value="0" unmaskedvalue="8180"/>
      <field name="dns.flags.authoritative" showname=".... .0.. .... .... = Authoritative: Server is not an authority for domain" size="2" pos="44" show="0" value="0" unmaskedvalue="8180"/>
      <field name="dns.flags.truncated" showname=".... ..0. .... .... = Truncated: Message is not truncated" size="2" pos="44" show="0" value="0" unmaskedvalue="8180"/>
      <field name="dns.flags.recdesired" showname=".... ...1 .... .... = Recursion desired: Do query recursively" size="2" pos="44" show="1" value="1" unmaskedvalue="8180"/>
      <field name="dns.flags.recavail" showname=".... .... 1... .... = Recursion available: Server can do recursive queries" size="2" pos="44" show="1" value="1" unmaskedvalue="8180"/>
      <field name="dns.flags.z" showname=".... .... .0.. .... = Z: reserved (0)" size="2" pos="44" show="0" value="0" unmaskedvalue="8180"/>
      <field name="dns.flags.authenticated" showname=".... .... ..0. .... = Answer authenticated: Answer/authority portion was not authenticated by the server" size="2" pos="44" show="0" value="0" unmaskedvalue="8180"/>
      <field name="dns.flags.checkdisable" showname=".... .... ...0 .... = Non-authenticated data: Unacceptable" size="2" pos="44" show="0" value="0" unmaskedvalue="8180"/>
      <field name="dns.flags.rcode" showname=".... .... .... 0000 = Reply code: No error (0)" size="2" pos="44" show="0" value="0" unmaskedvalue="8180"/>
    </field>
    <field name="dns.count.queries" showname="Questions: 1" size="2" pos="46" show="1" value="0001"/>
    <field name="dns.count.answers" showname="Answer RRs: 1" size="2" pos="48" show="1" value="0001"/>
    <field name="dns.count.auth_rr" showname="Authority RRs: 0" size="2" pos="50" show="0" value="0000"/>
    <field name="dns.count.add_rr" showname="Additional RRs: 0" size="2" pos="52" show="0" value="0000"/>
    <field name="" show="Queries" size="21" pos="54" value="04616472640674617875616e036e65740000010001">
      <field name="" show="adrd.taxuan.net: type A, class IN" size="21" pos="54" value="04616472640674617875616e036e65740000010001">
        <field name="dns.qry.name" showname="Name: adrd.taxuan.net" size="17" pos="54" show="adrd.taxuan.net" value="04616472640674617875616e036e657400"/>
        <field name="dns.qry.name.len" showname="Name Length: 15" size="17" pos="54" show="15" value="04616472640674617875616e036e657400"/>
        <field name="dns.count.labels" showname="Label Count: 3" size="17" pos="54" show="3" value="04616472640674617875616e036e657400"/>
        <field name="dns.qry.type" showname="Type: A (Host Address) (1)" size="2" pos="71" show="1" value="0001"/>
        <field name="dns.qry.class" showname="Class: IN (0x0001)" size="2" pos="73" show="1" value="0001"/>
      </field>
    </field>
    <field name="" show="Answers" size="16" pos="75" value="c00c0001000100002a300004341c0306">
      <field name="" show="adrd.taxuan.net: type A, class IN, addr 52.28.3.6" size="16" pos="75" value="c00c0001000100002a300004341c0306">
        <field name="dns.resp.name" showname="Name: adrd.taxuan.net" size="2" pos="75" show="adrd.taxuan.net" value="c00c"/>
        <field name="dns.resp.type" showname="Type: A (Host Address) (1)" size="2" pos="77" show="1" value="0001"/>
        <field name="dns.resp.class" showname="Class: IN (0x0001)" size="2" pos="79" show="1" value="0001"/>
        <field name="dns.resp.ttl" showname="Time to live: 10800" size="4" pos="81" show="10800" value="00002a30"/>
        <field name="dns.resp.len" showname="Data length: 4" size="2" pos="85" show="4" value="0004"/>
        <field name="dns.a" showname="Address: 52.28.3.6 (52.28.3.6)" size="4" pos="87" show="52.28.3.6" value="341c0306"/>
      </field>
    </field>
  </proto>
</packet>


</pdml>
